(dp0
S'amish'
p1
(lp2
F0.0008920606601248885
aF0.00042158516020236085
asS'versatile'
p3
(lp4
F0.0013380909901873326
aF0.00042158516020236085
asS'lace'
p5
(lp6
F0.00044603033006244426
aF0.0008431703204047217
asS'beware'
p7
(lp8
F0.00044603033006244426
aF0.0021079258010118043
asS'lack'
p9
(lp10
F0.00044603033006244426
aF0.0008431703204047217
asS'results'
p11
(lp12
F0.0008920606601248885
aF0.00042158516020236085
asS'felt'
p13
(lp14
F0.0008920606601248885
aF0.0008431703204047217
asS'four'
p15
(lp16
F0.0008920606601248885
aF0.00042158516020236085
asS'concept'
p17
(lp18
F0.00044603033006244426
aF0.0008431703204047217
asS'skin'
p19
(lp20
F0.00044603033006244426
aF0.0008431703204047217
asS'shot'
p21
(lp22
F0.00044603033006244426
aF0.0008431703204047217
asS'hate'
p23
(lp24
F0.00044603033006244426
aF0.0012647554806070826
asS'children'
p25
(lp26
F0.00044603033006244426
aF0.0008431703204047217
asS'issues'
p27
(lp28
F0.00044603033006244426
aF0.0021079258010118043
asS'poorly'
p29
(lp30
F0.00044603033006244426
aF0.0012647554806070826
asS'compact'
p31
(lp32
F0.0013380909901873326
aF0.0008431703204047217
asS'looking'
p33
(lp34
F0.0022301516503122213
aF0.0008431703204047217
asS'certainly'
p35
(lp36
F0.0008920606601248885
aF0.00042158516020236085
asS'smily'
p37
(lp38
F0.0008920606601248885
aF0.00042158516020236085
asS'lining'
p39
(lp40
F0.00044603033006244426
aF0.0008431703204047217
asS'originality'
p41
(lp42
F0.00044603033006244426
aF0.0008431703204047217
asS'lower'
p43
(lp44
F0.00044603033006244426
aF0.0008431703204047217
asS'charge'
p45
(lp46
F0.00044603033006244426
aF0.0008431703204047217
asS'dissatisfied'
p47
(lp48
F0.00044603033006244426
aF0.0008431703204047217
asS'th'
p49
(lp50
F0.00044603033006244426
aF0.0008431703204047217
asS'stable'
p51
(lp52
F0.00044603033006244426
aF0.0008431703204047217
asS'friendly'
p53
(lp54
F0.0013380909901873326
aF0.00042158516020236085
asS'returned'
p55
(lp56
F0.00044603033006244426
aF0.0012647554806070826
asS'returning'
p57
(lp58
F0.00044603033006244426
aF0.0008431703204047217
asS'very'
p59
(lp60
F0.01784121320249777
aF0.013069139966273187
asS'putting'
p61
(lp62
F0.0008920606601248885
aF0.00042158516020236085
asS'additional'
p63
(lp64
F0.0008920606601248885
aF0.0008431703204047217
asS'decide'
p65
(lp66
F0.00044603033006244426
aF0.0008431703204047217
asS'fall'
p67
(lp68
F0.0013380909901873326
aF0.00042158516020236085
asS'awful'
p69
(lp70
F0.00044603033006244426
aF0.0008431703204047217
asS'little'
p71
(lp72
F0.001784121320249777
aF0.0016863406408094434
asS'condition'
p73
(lp74
F0.0008920606601248885
aF0.00042158516020236085
asS'cool'
p75
(lp76
F0.0013380909901873326
aF0.00042158516020236085
asS'delivery'
p77
(lp78
F0.0044603033006244425
aF0.0016863406408094434
asS'enjoyable'
p79
(lp80
F0.0008920606601248885
aF0.00042158516020236085
asS'receiving'
p81
(lp82
F0.00044603033006244426
aF0.0008431703204047217
asS'impressive'
p83
(lp84
F0.0013380909901873326
aF0.0008431703204047217
asS'made'
p85
(lp86
F0.0022301516503122213
aF0.0016863406408094434
asS'did'
p87
(lp88
F0.00044603033006244426
aF0.0008431703204047217
asS'die'
p89
(lp90
F0.0008920606601248885
aF0.00042158516020236085
asS'button'
p91
(lp92
F0.00044603033006244426
aF0.0016863406408094434
asS'fragile'
p93
(lp94
F0.00044603033006244426
aF0.0008431703204047217
asS'try'
p95
(lp96
F0.0008920606601248885
aF0.00042158516020236085
asS'item'
p97
(lp98
F0.00044603033006244426
aF0.0021079258010118043
asS'engrossing'
p99
(lp100
F0.0008920606601248885
aF0.00042158516020236085
asS'warranties'
p101
(lp102
F0.00044603033006244426
aF0.0008431703204047217
asS'small'
p103
(lp104
F0.0013380909901873326
aF0.00463743676222597
asS'dip'
p105
(lp106
F0.00044603033006244426
aF0.0008431703204047217
asS'reliable'
p107
(lp108
F0.0008920606601248885
aF0.00042158516020236085
asS'clothes'
p109
(lp110
F0.0008920606601248885
aF0.0008431703204047217
asS'guzzling'
p111
(lp112
F0.00044603033006244426
aF0.0008431703204047217
asS'smaller'
p113
(lp114
F0.00044603033006244426
aF0.0008431703204047217
asS'says'
p115
(lp116
F0.00044603033006244426
aF0.0008431703204047217
asS'regret'
p117
(lp118
F0.0008920606601248885
aF0.00042158516020236085
asS'among'
p119
(lp120
F0.0008920606601248885
aF0.00042158516020236085
asS'obsolete'
p121
(lp122
F0.00044603033006244426
aF0.0008431703204047217
asS'boots'
p123
(lp124
F0.0008920606601248885
aF0.00042158516020236085
asS'elegant'
p125
(lp126
F0.001784121320249777
aF0.00042158516020236085
asS'second'
p127
(lp128
F0.0008920606601248885
aF0.0008431703204047217
asS'cost'
p129
(lp130
F0.0008920606601248885
aF0.00042158516020236085
asS'design'
p131
(lp132
F0.0031222123104371097
aF0.0012647554806070826
asS'shirts'
p133
(lp134
F0.0008920606601248885
aF0.0008431703204047217
asS'corner'
p135
(lp136
F0.00044603033006244426
aF0.0012647554806070826
asS'odd'
p137
(lp138
F0.00044603033006244426
aF0.0008431703204047217
asS'casual'
p139
(lp140
F0.0022301516503122213
aF0.00042158516020236085
asS'stressful'
p141
(lp142
F0.0008920606601248885
aF0.00042158516020236085
asS'sub'
p143
(lp144
F0.00044603033006244426
aF0.0008431703204047217
asS'giving'
p145
(lp146
F0.00044603033006244426
aF0.0008431703204047217
asS'fingers'
p147
(lp148
F0.00044603033006244426
aF0.0008431703204047217
asS'pleased'
p149
(lp150
F0.0013380909901873326
aF0.0008431703204047217
asS'version'
p151
(lp152
F0.0008920606601248885
aF0.00042158516020236085
asS'goes'
p153
(lp154
F0.0008920606601248885
aF0.00042158516020236085
asS'new'
p155
(lp156
F0.00044603033006244426
aF0.0008431703204047217
asS'ever'
p157
(lp158
F0.0022301516503122213
aF0.002951096121416526
asS'revealing'
p159
(lp160
F0.0008920606601248885
aF0.00042158516020236085
asS'full'
p161
(lp162
F0.0008920606601248885
aF0.00042158516020236085
asS'leg'
p163
(lp164
F0.0008920606601248885
aF0.00042158516020236085
asS'never'
p165
(lp166
F0.00044603033006244426
aF0.0016863406408094434
asS'hours'
p167
(lp168
F0.00044603033006244426
aF0.0008431703204047217
asS'china'
p169
(lp170
F0.00044603033006244426
aF0.0008431703204047217
asS'ubuntu'
p171
(lp172
F0.00044603033006244426
aF0.0008431703204047217
asS'quite'
p173
(lp174
F0.0008920606601248885
aF0.00042158516020236085
asS'wait'
p175
(lp176
F0.0008920606601248885
aF0.00042158516020236085
asS'box'
p177
(lp178
F0.0008920606601248885
aF0.00042158516020236085
asS'bt'
p179
(lp180
F0.00044603033006244426
aF0.0008431703204047217
asS'great'
p181
(lp182
F0.014272970561998216
aF0.0021079258010118043
asS'kids'
p183
(lp184
F0.001784121320249777
aF0.0012647554806070826
asS'daughter'
p185
(lp186
F0.001784121320249777
aF0.0008431703204047217
asS'colored'
p187
(lp188
F0.00044603033006244426
aF0.0008431703204047217
asS'noticeable'
p189
(lp190
F0.0008920606601248885
aF0.00042158516020236085
asS'jams'
p191
(lp192
F0.00044603033006244426
aF0.0008431703204047217
asS'receive'
p193
(lp194
F0.00044603033006244426
aF0.0008431703204047217
asS'larger'
p195
(lp196
F0.00044603033006244426
aF0.0008431703204047217
asS'experience'
p197
(lp198
F0.001784121320249777
aF0.0008431703204047217
asS'bulges'
p199
(lp200
F0.0008920606601248885
aF0.00042158516020236085
asS'products'
p201
(lp202
F0.0008920606601248885
aF0.0016863406408094434
asS'suggestion'
p203
(lp204
F0.0008920606601248885
aF0.00042158516020236085
asS'mindblowing'
p205
(lp206
F0.0013380909901873326
aF0.00042158516020236085
asS'action'
p207
(lp208
F0.00044603033006244426
aF0.0008431703204047217
asS'surely'
p209
(lp210
F0.0008920606601248885
aF0.00042158516020236085
asS'weird'
p211
(lp212
F0.00044603033006244426
aF0.0008431703204047217
asS'narrow'
p213
(lp214
F0.0013380909901873326
aF0.0008431703204047217
asS'makes'
p215
(lp216
F0.00044603033006244426
aF0.0008431703204047217
asS'honor'
p217
(lp218
F0.00044603033006244426
aF0.0008431703204047217
asS'fell'
p219
(lp220
F0.0008920606601248885
aF0.00042158516020236085
asS'plotted'
p221
(lp222
F0.0008920606601248885
aF0.00042158516020236085
asS'golden'
p223
(lp224
F0.001784121320249777
aF0.00042158516020236085
asS'fantastic'
p225
(lp226
F0.001784121320249777
aF0.00042158516020236085
asS'killer'
p227
(lp228
F0.00044603033006244426
aF0.0008431703204047217
asS'love'
p229
(lp230
F0.006244424620874219
aF0.00042158516020236085
asS'os'
p231
(lp232
F0.00044603033006244426
aF0.0008431703204047217
asS'awear'
p233
(lp234
F0.00044603033006244426
aF0.0008431703204047217
asS'app'
p235
(lp236
F0.00044603033006244426
aF0.0008431703204047217
asS'marked'
p237
(lp238
F0.00044603033006244426
aF0.0008431703204047217
asS'highly'
p239
(lp240
F0.001784121320249777
aF0.00042158516020236085
asS'brought'
p241
(lp242
F0.0008920606601248885
aF0.00042158516020236085
asS'visible'
p243
(lp244
F0.0008920606601248885
aF0.00042158516020236085
asS'moral'
p245
(lp246
F0.00044603033006244426
aF0.0008431703204047217
asS'texture'
p247
(lp248
F0.0008920606601248885
aF0.0008431703204047217
asS'motor'
p249
(lp250
F0.00044603033006244426
aF0.0008431703204047217
asS'fake'
p251
(lp252
F0.00044603033006244426
aF0.0021079258010118043
asS'total'
p253
(lp254
F0.00044603033006244426
aF0.0021079258010118043
asS'unit'
p255
(lp256
F0.0008920606601248885
aF0.00042158516020236085
asS'narayan'
p257
(lp258
F0.0008920606601248885
aF0.00042158516020236085
asS'crap'
p259
(lp260
F0.00044603033006244426
aF0.0021079258010118043
asS'working'
p261
(lp262
F0.00044603033006244426
aF0.002529510961214165
asS'positive'
p263
(lp264
F0.0008920606601248885
aF0.00042158516020236085
asS'sweater'
p265
(lp266
F0.00044603033006244426
aF0.0008431703204047217
asS'arms'
p267
(lp268
F0.00044603033006244426
aF0.0012647554806070826
asS'duplicate'
p269
(lp270
F0.00044603033006244426
aF0.002529510961214165
asS'camera'
p271
(lp272
F0.00044603033006244426
aF0.0008431703204047217
asS'wonderfully'
p273
(lp274
F0.0008920606601248885
aF0.00042158516020236085
asS'wondering'
p275
(lp276
F0.00044603033006244426
aF0.0008431703204047217
asS'recommend'
p277
(lp278
F0.0026761819803746653
aF0.0008431703204047217
asS'proportions'
p279
(lp280
F0.00044603033006244426
aF0.0008431703204047217
asS'more'
p281
(lp282
F0.00044603033006244426
aF0.0012647554806070826
asS'attractive'
p283
(lp284
F0.0008920606601248885
aF0.0008431703204047217
asS'pretty'
p285
(lp286
F0.004014272970561998
aF0.0016863406408094434
asS'materiel'
p287
(lp288
F0.0008920606601248885
aF0.00042158516020236085
asS'under'
p289
(lp290
F0.00044603033006244426
aF0.0008431703204047217
asS'impress'
p291
(lp292
F0.00044603033006244426
aF0.0008431703204047217
asS'hurt'
p293
(lp294
F0.00044603033006244426
aF0.0008431703204047217
asS'long'
p295
(lp296
F0.0008920606601248885
aF0.0021079258010118043
asS'stick'
p297
(lp298
F0.0008920606601248885
aF0.00042158516020236085
asS'excellent'
p299
(lp300
F0.005798394290811775
aF0.00042158516020236085
asS'baby'
p301
(lp302
F0.0008920606601248885
aF0.00042158516020236085
asS'ok'
p303
(lp304
F0.001784121320249777
aF0.002529510961214165
asS'hole'
p305
(lp306
F0.00044603033006244426
aF0.0008431703204047217
asS'aligned'
p307
(lp308
F0.00044603033006244426
aF0.0008431703204047217
asS'outdated'
p309
(lp310
F0.00044603033006244426
aF0.0012647554806070826
asS'must'
p311
(lp312
F0.0022301516503122213
aF0.00042158516020236085
asS'customer'
p313
(lp314
F0.00044603033006244426
aF0.0016863406408094434
asS'fooling'
p315
(lp316
F0.00044603033006244426
aF0.0008431703204047217
asS'word'
p317
(lp318
F0.0008920606601248885
aF0.00042158516020236085
asS'language'
p319
(lp320
F0.0008920606601248885
aF0.00042158516020236085
asS'science'
p321
(lp322
F0.00044603033006244426
aF0.0008431703204047217
asS'getting'
p323
(lp324
F0.00044603033006244426
aF0.0008431703204047217
asS'sucks'
p325
(lp326
F0.00044603033006244426
aF0.0016863406408094434
asS'worn'
p327
(lp328
F0.0013380909901873326
aF0.00042158516020236085
asS'worth'
p329
(lp330
F0.0053523639607493305
aF0.0016863406408094434
asS'horseshit'
p331
(lp332
F0.00044603033006244426
aF0.0008431703204047217
asS'archer'
p333
(lp334
F0.00044603033006244426
aF0.0008431703204047217
asS'thin'
p335
(lp336
F0.00044603033006244426
aF0.0016863406408094434
asS'meet'
p337
(lp338
F0.00044603033006244426
aF0.0008431703204047217
asS'didnt'
p339
(lp340
F0.00044603033006244426
aF0.0008431703204047217
asS'beautiful'
p341
(lp342
F0.003568242640499554
aF0.0008431703204047217
asS'claim'
p343
(lp344
F0.00044603033006244426
aF0.0008431703204047217
asS'crazy'
p345
(lp346
F0.00044603033006244426
aF0.0008431703204047217
asS'bent'
p347
(lp348
F0.00044603033006244426
aF0.0008431703204047217
asS'figure'
p349
(lp350
F0.00044603033006244426
aF0.0012647554806070826
asS'lock'
p351
(lp352
F0.00044603033006244426
aF0.0008431703204047217
asS'awesome'
p353
(lp354
F0.006244424620874219
aF0.0008431703204047217
asS'lightweight'
p355
(lp356
F0.0013380909901873326
aF0.00042158516020236085
asS'terrible'
p357
(lp358
F0.00044603033006244426
aF0.0021079258010118043
asS'high'
p359
(lp360
F0.00044603033006244426
aF0.002951096121416526
asS'slit'
p361
(lp362
F0.00044603033006244426
aF0.0008431703204047217
asS'minimum'
p363
(lp364
F0.00044603033006244426
aF0.0008431703204047217
asS'something'
p365
(lp366
F0.0008920606601248885
aF0.0008431703204047217
asS'purchased'
p367
(lp368
F0.0008920606601248885
aF0.0012647554806070826
asS'every'
p369
(lp370
F0.0008920606601248885
aF0.0008431703204047217
asS'honest'
p371
(lp372
F0.0008920606601248885
aF0.00042158516020236085
asS'dress'
p373
(lp374
F0.0053523639607493305
aF0.0012647554806070826
asS'worse'
p375
(lp376
F0.00044603033006244426
aF0.0012647554806070826
asS'sis'
p377
(lp378
F0.0008920606601248885
aF0.00042158516020236085
asS'huge'
p379
(lp380
F0.00044603033006244426
aF0.0021079258010118043
asS'needs'
p381
(lp382
F0.0008920606601248885
aF0.00042158516020236085
asS'end'
p383
(lp384
F0.00044603033006244426
aF0.0008431703204047217
asS'awkward'
p385
(lp386
F0.00044603033006244426
aF0.0008431703204047217
asS'thing'
p387
(lp388
F0.0008920606601248885
aF0.00042158516020236085
asS'clothing'
p389
(lp390
F0.0008920606601248885
aF0.00042158516020236085
asS'comfort'
p391
(lp392
F0.0013380909901873326
aF0.00042158516020236085
asS'feature'
p393
(lp394
F0.00044603033006244426
aF0.0008431703204047217
asS'everyday'
p395
(lp396
F0.0008920606601248885
aF0.00042158516020236085
asS'write'
p397
(lp398
F0.00044603033006244426
aF0.0012647554806070826
asS'till'
p399
(lp400
F0.0008920606601248885
aF0.00042158516020236085
asS'amazing'
p401
(lp402
F0.003568242640499554
aF0.0008431703204047217
asS'nyc'
p403
(lp404
F0.0008920606601248885
aF0.00042158516020236085
asS'faulty'
p405
(lp406
F0.00044603033006244426
aF0.0021079258010118043
asS'upto'
p407
(lp408
F0.00044603033006244426
aF0.0021079258010118043
asS'badly'
p409
(lp410
F0.00044603033006244426
aF0.0008431703204047217
asS'product'
p411
(lp412
F0.01650312221231044
aF0.017284991568296795
asS'designer'
p413
(lp414
F0.0013380909901873326
aF0.00042158516020236085
asS'frilly'
p415
(lp416
F0.0008920606601248885
aF0.00042158516020236085
asS'description'
p417
(lp418
F0.00044603033006244426
aF0.0012647554806070826
asS'freezing'
p419
(lp420
F0.00044603033006244426
aF0.0008431703204047217
asS'fallwinter'
p421
(lp422
F0.0008920606601248885
aF0.00042158516020236085
asS'damaged'
p423
(lp424
F0.00044603033006244426
aF0.002529510961214165
asS'collection'
p425
(lp426
F0.0031222123104371097
aF0.00042158516020236085
asS'stripes'
p427
(lp428
F0.00044603033006244426
aF0.0012647554806070826
asS'catalog'
p429
(lp430
F0.00044603033006244426
aF0.0008431703204047217
asS'stars'
p431
(lp432
F0.0013380909901873326
aF0.0008431703204047217
asS'designed'
p433
(lp434
F0.00044603033006244426
aF0.0008431703204047217
asS'coming'
p435
(lp436
F0.00044603033006244426
aF0.0008431703204047217
asS'date'
p437
(lp438
F0.0013380909901873326
aF0.00042158516020236085
asS'such'
p439
(lp440
F0.0008920606601248885
aF0.00042158516020236085
asS'truly'
p441
(lp442
F0.0013380909901873326
aF0.00042158516020236085
asS'shockingly'
p443
(lp444
F0.00044603033006244426
aF0.0008431703204047217
asS'purchase'
p445
(lp446
F0.0013380909901873326
aF0.002529510961214165
asS'short'
p447
(lp448
F0.00044603033006244426
aF0.0008431703204047217
asS'natural'
p449
(lp450
F0.0008920606601248885
aF0.00042158516020236085
asS'defective'
p451
(lp452
F0.00044603033006244426
aF0.0016863406408094434
asS'effective'
p453
(lp454
F0.0008920606601248885
aF0.00042158516020236085
asS'maybe'
p455
(lp456
F0.00044603033006244426
aF0.0016863406408094434
asS'optimised'
p457
(lp458
F0.00044603033006244426
aF0.0008431703204047217
asS'life'
p459
(lp460
F0.00044603033006244426
aF0.0012647554806070826
asS'amazon'
p461
(lp462
F0.0031222123104371097
aF0.0008431703204047217
asS'coelho'
p463
(lp464
F0.0008920606601248885
aF0.00042158516020236085
asS'linen'
p465
(lp466
F0.0008920606601248885
aF0.00042158516020236085
asS'keeps'
p467
(lp468
F0.0008920606601248885
aF0.00042158516020236085
asS'necklace'
p469
(lp470
F0.00044603033006244426
aF0.0008431703204047217
asS'worst'
p471
(lp472
F0.0008920606601248885
aF0.0037942664418212477
asS'lined'
p473
(lp474
F0.0008920606601248885
aF0.00042158516020236085
asS'playing'
p475
(lp476
F0.00044603033006244426
aF0.0008431703204047217
asS'refund'
p477
(lp478
F0.00044603033006244426
aF0.0008431703204047217
asS'cute'
p479
(lp480
F0.0044603033006244425
aF0.0008431703204047217
asS'shoes'
p481
(lp482
F0.0044603033006244425
aF0.0008431703204047217
asS'repair'
p483
(lp484
F0.00044603033006244426
aF0.0012647554806070826
asS'particularly'
p485
(lp486
F0.00044603033006244426
aF0.0008431703204047217
asS'soon'
p487
(lp488
F0.0008920606601248885
aF0.00042158516020236085
asS'isnt'
p489
(lp490
F0.00044603033006244426
aF0.0008431703204047217
asS'paper'
p491
(lp492
F0.0008920606601248885
aF0.0012647554806070826
asS'through'
p493
(lp494
F0.00044603033006244426
aF0.0012647554806070826
asS'looks'
p495
(lp496
F0.001784121320249777
aF0.00463743676222597
asS'keyboard'
p497
(lp498
F0.00044603033006244426
aF0.0012647554806070826
asS'mentioned'
p499
(lp500
F0.0008920606601248885
aF0.0021079258010118043
asS'hell'
p501
(lp502
F0.00044603033006244426
aF0.0008431703204047217
asS'still'
p503
(lp504
F0.00044603033006244426
aF0.0008431703204047217
asS'before'
p505
(lp506
F0.0008920606601248885
aF0.0008431703204047217
asS'perfect'
p507
(lp508
F0.007136485280999108
aF0.0008431703204047217
asS'messed'
p509
(lp510
F0.00044603033006244426
aF0.0008431703204047217
asS'style'
p511
(lp512
F0.0031222123104371097
aF0.0012647554806070826
asS'thrilling'
p513
(lp514
F0.0013380909901873326
aF0.00042158516020236085
asS'thank'
p515
(lp516
F0.0013380909901873326
aF0.00042158516020236085
asS'fit'
p517
(lp518
F0.00847457627118644
aF0.00463743676222597
asS'interesting'
p519
(lp520
F0.001784121320249777
aF0.00042158516020236085
asS'expectations'
p521
(lp522
F0.0008920606601248885
aF0.00042158516020236085
asS'actually'
p523
(lp524
F0.00044603033006244426
aF0.0008431703204047217
asS'better'
p525
(lp526
F0.00044603033006244426
aF0.0008431703204047217
asS'techie'
p527
(lp528
F0.0008920606601248885
aF0.00042158516020236085
asS'spellbound'
p529
(lp530
F0.0013380909901873326
aF0.00042158516020236085
asS'minute'
p531
(lp532
F0.0008920606601248885
aF0.00042158516020236085
asS'nifty'
p533
(lp534
F0.00044603033006244426
aF0.0008431703204047217
asS'might'
p535
(lp536
F0.00044603033006244426
aF0.0008431703204047217
asS'setting'
p537
(lp538
F0.00044603033006244426
aF0.0008431703204047217
asS'non'
p539
(lp540
F0.00044603033006244426
aF0.0008431703204047217
asS'good'
p541
(lp542
F0.02408563782337199
aF0.01517706576728499
asS'return'
p543
(lp544
F0.00044603033006244426
aF0.0016863406408094434
asS'combination'
p545
(lp546
F0.0013380909901873326
aF0.00042158516020236085
asS'entire'
p547
(lp548
F0.00044603033006244426
aF0.0008431703204047217
asS'matches'
p549
(lp550
F0.0008920606601248885
aF0.00042158516020236085
asS'material'
p551
(lp552
F0.004014272970561998
aF0.00885328836424958
asS'legendary'
p553
(lp554
F0.0008920606601248885
aF0.00042158516020236085
asS'hands'
p555
(lp556
F0.00044603033006244426
aF0.0008431703204047217
asS'not'
p557
(lp558
F0.004014272970561998
aF0.0387858347386172
asS'handy'
p559
(lp560
F0.0008920606601248885
aF0.00042158516020236085
asS'nor'
p561
(lp562
F0.00044603033006244426
aF0.0008431703204047217
asS'mystery'
p563
(lp564
F0.0008920606601248885
aF0.00042158516020236085
asS'easily'
p565
(lp566
F0.0013380909901873326
aF0.00042158516020236085
asS'name'
p567
(lp568
F0.00044603033006244426
aF0.0008431703204047217
asS'pregnant'
p569
(lp570
F0.00044603033006244426
aF0.0008431703204047217
asS'always'
p571
(lp572
F0.0013380909901873326
aF0.00042158516020236085
asS'reasonably'
p573
(lp574
F0.0008920606601248885
aF0.00042158516020236085
asS'drop'
p575
(lp576
F0.0013380909901873326
aF0.00042158516020236085
asS'moderate'
p577
(lp578
F0.0008920606601248885
aF0.00042158516020236085
asS'rocks'
p579
(lp580
F0.0013380909901873326
aF0.00042158516020236085
asS'unpredictable'
p581
(lp582
F0.0008920606601248885
aF0.00042158516020236085
asS'slide'
p583
(lp584
F0.0008920606601248885
aF0.00042158516020236085
asS'reasonable'
p585
(lp586
F0.0022301516503122213
aF0.00042158516020236085
asS'each'
p587
(lp588
F0.0008920606601248885
aF0.00042158516020236085
asS'colleagues'
p589
(lp590
F0.0008920606601248885
aF0.00042158516020236085
asS'difficult'
p591
(lp592
F0.00044603033006244426
aF0.0016863406408094434
asS'reminds'
p593
(lp594
F0.00044603033006244426
aF0.0008431703204047217
asS'flipkart'
p595
(lp596
F0.0008920606601248885
aF0.003372681281618887
asS'em'
p597
(lp598
F0.0008920606601248885
aF0.00042158516020236085
asS'harm'
p599
(lp600
F0.00044603033006244426
aF0.0008431703204047217
asS'everyone'
p601
(lp602
F0.0008920606601248885
aF0.00042158516020236085
asS'weight'
p603
(lp604
F0.0008920606601248885
aF0.0008431703204047217
asS'series'
p605
(lp606
F0.0008920606601248885
aF0.0008431703204047217
asS'hard'
p607
(lp608
F0.0008920606601248885
aF0.00042158516020236085
asS'used'
p609
(lp610
F0.0008920606601248885
aF0.00042158516020236085
asS'engaging'
p611
(lp612
F0.00044603033006244426
aF0.0008431703204047217
asS'pirated'
p613
(lp614
F0.00044603033006244426
aF0.0012647554806070826
asS'books'
p615
(lp616
F0.0008920606601248885
aF0.0008431703204047217
asS'expect'
p617
(lp618
F0.0008920606601248885
aF0.00042158516020236085
asS'okay'
p619
(lp620
F0.0008920606601248885
aF0.0016863406408094434
asS'lesson'
p621
(lp622
F0.00044603033006244426
aF0.0008431703204047217
asS'special'
p623
(lp624
F0.00044603033006244426
aF0.0008431703204047217
asS'really'
p625
(lp626
F0.003568242640499554
aF0.0021079258010118043
asS'large'
p627
(lp628
F0.00044603033006244426
aF0.0021079258010118043
asS'shown'
p629
(lp630
F0.0008920606601248885
aF0.0008431703204047217
asS'gamers'
p631
(lp632
F0.00044603033006244426
aF0.0008431703204047217
asS'rs'
p633
(lp634
F0.0008920606601248885
aF0.00042158516020236085
asS'retuning'
p635
(lp636
F0.00044603033006244426
aF0.0008431703204047217
asS'washed'
p637
(lp638
F0.00044603033006244426
aF0.0008431703204047217
asS'factory'
p639
(lp640
F0.00044603033006244426
aF0.0008431703204047217
asS'rd'
p641
(lp642
F0.00044603033006244426
aF0.0008431703204047217
asS'adjust'
p643
(lp644
F0.0008920606601248885
aF0.00042158516020236085
asS'print'
p645
(lp646
F0.0008920606601248885
aF0.0012647554806070826
asS'got'
p647
(lp648
F0.0013380909901873326
aF0.002529510961214165
asS'washes'
p649
(lp650
F0.0008920606601248885
aF0.00042158516020236085
asS'issue'
p651
(lp652
F0.0008920606601248885
aF0.0012647554806070826
asS'correct'
p653
(lp654
F0.0008920606601248885
aF0.00042158516020236085
asS'red'
p655
(lp656
F0.0008920606601248885
aF0.00042158516020236085
asS'mesmerised'
p657
(lp658
F0.0008920606601248885
aF0.00042158516020236085
asS'pathetic'
p659
(lp660
F0.00044603033006244426
aF0.0016863406408094434
asS'given'
p661
(lp662
F0.0008920606601248885
aF0.0012647554806070826
asS'free'
p663
(lp664
F0.00044603033006244426
aF0.0008431703204047217
asS'standard'
p665
(lp666
F0.00044603033006244426
aF0.0021079258010118043
asS'geared'
p667
(lp668
F0.00044603033006244426
aF0.0008431703204047217
asS'quick'
p669
(lp670
F0.001784121320249777
aF0.0008431703204047217
asS'completely'
p671
(lp672
F0.0008920606601248885
aF0.0016863406408094434
asS'masterpiece'
p673
(lp674
F0.001784121320249777
aF0.0008431703204047217
asS'unsightly'
p675
(lp676
F0.0008920606601248885
aF0.00042158516020236085
asS'complimenting'
p677
(lp678
F0.0008920606601248885
aF0.00042158516020236085
asS'put'
p679
(lp680
F0.0008920606601248885
aF0.00042158516020236085
asS'fragnance'
p681
(lp682
F0.00044603033006244426
aF0.0012647554806070826
asS'wanted'
p683
(lp684
F0.0008920606601248885
aF0.00042158516020236085
asS'software'
p685
(lp686
F0.00044603033006244426
aF0.0008431703204047217
asS'thread'
p687
(lp688
F0.0008920606601248885
aF0.00042158516020236085
asS'backside'
p689
(lp690
F0.00044603033006244426
aF0.0008431703204047217
asS'inexpensive'
p691
(lp692
F0.0008920606601248885
aF0.00042158516020236085
asS'days'
p693
(lp694
F0.00044603033006244426
aF0.0008431703204047217
asS'times'
p695
(lp696
F0.0008920606601248885
aF0.00042158516020236085
asS'lousy'
p697
(lp698
F0.00044603033006244426
aF0.0008431703204047217
asS'shipped'
p699
(lp700
F0.00044603033006244426
aF0.0008431703204047217
asS'heck'
p701
(lp702
F0.0008920606601248885
aF0.00042158516020236085
asS'hopeless'
p703
(lp704
F0.00044603033006244426
aF0.0012647554806070826
asS'swing'
p705
(lp706
F0.0008920606601248885
aF0.00042158516020236085
asS'broken'
p707
(lp708
F0.00044603033006244426
aF0.0012647554806070826
asS'purpose'
p709
(lp710
F0.0008920606601248885
aF0.00042158516020236085
asS'enjoy'
p711
(lp712
F0.0008920606601248885
aF0.00042158516020236085
asS'major'
p713
(lp714
F0.00044603033006244426
aF0.0008431703204047217
asS'bling'
p715
(lp716
F0.0013380909901873326
aF0.00042158516020236085
asS'achingly'
p717
(lp718
F0.0008920606601248885
aF0.00042158516020236085
asS'grade'
p719
(lp720
F0.00044603033006244426
aF0.0008431703204047217
asS'third'
p721
(lp722
F0.00044603033006244426
aF0.0008431703204047217
asS'powerful'
p723
(lp724
F0.0008920606601248885
aF0.00042158516020236085
asS'owned'
p725
(lp726
F0.00044603033006244426
aF0.0008431703204047217
asS'excately'
p727
(lp728
F0.0008920606601248885
aF0.00042158516020236085
asS'feet'
p729
(lp730
F0.0008920606601248885
aF0.0008431703204047217
asS'fits'
p731
(lp732
F0.004906333630686887
aF0.00042158516020236085
asS'philosophical'
p733
(lp734
F0.00044603033006244426
aF0.0008431703204047217
asS'improvements'
p735
(lp736
F0.00044603033006244426
aF0.0008431703204047217
asS'done'
p737
(lp738
F0.0008920606601248885
aF0.00042158516020236085
asS'spots'
p739
(lp740
F0.00044603033006244426
aF0.0008431703204047217
asS'another'
p741
(lp742
F0.0008920606601248885
aF0.00042158516020236085
asS'carry'
p743
(lp744
F0.0008920606601248885
aF0.0008431703204047217
asS'xs'
p745
(lp746
F0.0008920606601248885
aF0.00042158516020236085
asS'clarity'
p747
(lp748
F0.00044603033006244426
aF0.0008431703204047217
asS'quality'
p749
(lp750
F0.008920606601248885
aF0.017284991568296795
asS'size'
p751
(lp752
F0.0031222123104371097
aF0.00885328836424958
asS'story'
p753
(lp754
F0.0026761819803746653
aF0.0016863406408094434
asS'sandals'
p755
(lp756
F0.0022301516503122213
aF0.0008431703204047217
asS'checked'
p757
(lp758
F0.00044603033006244426
aF0.0008431703204047217
asS'service'
p759
(lp760
F0.0013380909901873326
aF0.003372681281618887
asS'totally'
p761
(lp762
F0.0022301516503122213
aF0.0008431703204047217
asS'top'
p763
(lp764
F0.001784121320249777
aF0.0016863406408094434
asS'neck'
p765
(lp766
F0.0008920606601248885
aF0.0012647554806070826
asS'girls'
p767
(lp768
F0.00044603033006244426
aF0.0008431703204047217
asS'comfy'
p769
(lp770
F0.0008920606601248885
aF0.00042158516020236085
asS'fiction'
p771
(lp772
F0.00044603033006244426
aF0.0008431703204047217
asS'anyone'
p773
(lp774
F0.0008920606601248885
aF0.00042158516020236085
asS'needed'
p775
(lp776
F0.0008920606601248885
aF0.00042158516020236085
asS'flimsy'
p777
(lp778
F0.00044603033006244426
aF0.0016863406408094434
asS'wonderful'
p779
(lp780
F0.001784121320249777
aF0.00042158516020236085
asS'too'
p781
(lp782
F0.0022301516503122213
aF0.012225969645868466
asS'time'
p783
(lp784
F0.0031222123104371097
aF0.002529510961214165
asS'shoppers'
p785
(lp786
F0.0008920606601248885
aF0.00042158516020236085
asS'white'
p787
(lp788
F0.00044603033006244426
aF0.0012647554806070826
asS'legs'
p789
(lp790
F0.00044603033006244426
aF0.0012647554806070826
asS'store'
p791
(lp792
F0.00044603033006244426
aF0.0008431703204047217
asS'low'
p793
(lp794
F0.0022301516503122213
aF0.0021079258010118043
asS'murder'
p795
(lp796
F0.0008920606601248885
aF0.00042158516020236085
asS'scintillating'
p797
(lp798
F0.0008920606601248885
aF0.00042158516020236085
asS'courier'
p799
(lp800
F0.00044603033006244426
aF0.0008431703204047217
asS'exactly'
p801
(lp802
F0.0008920606601248885
aF0.00042158516020236085
asS'ink'
p803
(lp804
F0.00044603033006244426
aF0.0008431703204047217
asS'took'
p805
(lp806
F0.0008920606601248885
aF0.00042158516020236085
asS'dupatta'
p807
(lp808
F0.00044603033006244426
aF0.0008431703204047217
asS'slider'
p809
(lp810
F0.00044603033006244426
aF0.0012647554806070826
asS'slowoutdated'
p811
(lp812
F0.00044603033006244426
aF0.0008431703204047217
asS'push'
p813
(lp814
F0.00044603033006244426
aF0.0008431703204047217
asS'discounted'
p815
(lp816
F0.00044603033006244426
aF0.0008431703204047217
asS'copy'
p817
(lp818
F0.0008920606601248885
aF0.0008431703204047217
asS'appreciated'
p819
(lp820
F0.0008920606601248885
aF0.00042158516020236085
asS'waist'
p821
(lp822
F0.00044603033006244426
aF0.0012647554806070826
asS'ipad'
p823
(lp824
F0.00044603033006244426
aF0.0008431703204047217
asS'wide'
p825
(lp826
F0.00044603033006244426
aF0.0008431703204047217
asS'kind'
p827
(lp828
F0.00044603033006244426
aF0.0008431703204047217
asS'perfectly'
p829
(lp830
F0.0013380909901873326
aF0.00042158516020236085
asS'threads'
p831
(lp832
F0.00044603033006244426
aF0.0008431703204047217
asS'unfortunately'
p833
(lp834
F0.00044603033006244426
aF0.0008431703204047217
asS'bag'
p835
(lp836
F0.001784121320249777
aF0.0012647554806070826
asS'boring'
p837
(lp838
F0.00044603033006244426
aF0.0016863406408094434
asS'device'
p839
(lp840
F0.0008920606601248885
aF0.0008431703204047217
asS'rate'
p841
(lp842
F0.0008920606601248885
aF0.0008431703204047217
asS'matter'
p843
(lp844
F0.00044603033006244426
aF0.0008431703204047217
asS'fabulous'
p845
(lp846
F0.001784121320249777
aF0.00042158516020236085
asS'cuff'
p847
(lp848
F0.00044603033006244426
aF0.0008431703204047217
asS'painful'
p849
(lp850
F0.00044603033006244426
aF0.0008431703204047217
asS'loves'
p851
(lp852
F0.0008920606601248885
aF0.00042158516020236085
asS'light'
p853
(lp854
F0.0031222123104371097
aF0.0008431703204047217
asS'wastage'
p855
(lp856
F0.00044603033006244426
aF0.0012647554806070826
asS'feeling'
p857
(lp858
F0.00044603033006244426
aF0.0008431703204047217
asS'brilliant'
p859
(lp860
F0.0013380909901873326
aF0.00042158516020236085
asS'outstanding'
p861
(lp862
F0.0013380909901873326
aF0.00042158516020236085
asS'wasnt'
p863
(lp864
F0.0008920606601248885
aF0.00042158516020236085
asS'grayish'
p865
(lp866
F0.00044603033006244426
aF0.0008431703204047217
asS'comfortable'
p867
(lp868
F0.007136485280999108
aF0.0008431703204047217
asS'lifetransforming'
p869
(lp870
F0.0008920606601248885
aF0.00042158516020236085
asS'selling'
p871
(lp872
F0.00044603033006244426
aF0.0012647554806070826
asS'suspense'
p873
(lp874
F0.0008920606601248885
aF0.00042158516020236085
asS'need'
p875
(lp876
F0.0008920606601248885
aF0.0008431703204047217
asS'seen'
p877
(lp878
F0.00044603033006244426
aF0.0012647554806070826
asS'cumbersome'
p879
(lp880
F0.00044603033006244426
aF0.0008431703204047217
asS'border'
p881
(lp882
F0.0008920606601248885
aF0.00042158516020236085
asS'neckside'
p883
(lp884
F0.0008920606601248885
aF0.00042158516020236085
asS'genuine'
p885
(lp886
F0.0013380909901873326
aF0.0008431703204047217
asS'built'
p887
(lp888
F0.00044603033006244426
aF0.0008431703204047217
asS'thoroughly'
p889
(lp890
F0.0008920606601248885
aF0.00042158516020236085
asS'recommended'
p891
(lp892
F0.0008920606601248885
aF0.0012647554806070826
asS'materials'
p893
(lp894
F0.00044603033006244426
aF0.0008431703204047217
asS'useless'
p895
(lp896
F0.00044603033006244426
aF0.0008431703204047217
asS'online'
p897
(lp898
F0.0008920606601248885
aF0.0016863406408094434
asS'aggravating'
p899
(lp900
F0.00044603033006244426
aF0.0008431703204047217
asS'performance'
p901
(lp902
F0.0013380909901873326
aF0.0008431703204047217
asS'clunky'
p903
(lp904
F0.00044603033006244426
aF0.0008431703204047217
asS'memory'
p905
(lp906
F0.0008920606601248885
aF0.0008431703204047217
asS'play'
p907
(lp908
F0.00044603033006244426
aF0.0008431703204047217
asS'printer'
p909
(lp910
F0.00044603033006244426
aF0.0012647554806070826
asS'multiple'
p911
(lp912
F0.0008920606601248885
aF0.00042158516020236085
asS'though'
p913
(lp914
F0.0008920606601248885
aF0.0016863406408094434
asS'price'
p915
(lp916
F0.01159678858162355
aF0.005902192242833052
asS'classy'
p917
(lp918
F0.0008920606601248885
aF0.00042158516020236085
asS'chart'
p919
(lp920
F0.0008920606601248885
aF0.0012647554806070826
asS'falls'
p921
(lp922
F0.0008920606601248885
aF0.00042158516020236085
asS'regular'
p923
(lp924
F0.0008920606601248885
aF0.00042158516020236085
asS'skinner'
p925
(lp926
F0.00044603033006244426
aF0.0008431703204047217
asS'nothing'
p927
(lp928
F0.00044603033006244426
aF0.0016863406408094434
asS'extremely'
p929
(lp930
F0.0008920606601248885
aF0.002529510961214165
asS'class'
p931
(lp932
F0.00044603033006244426
aF0.0016863406408094434
asS'funnier'
p933
(lp934
F0.0008920606601248885
aF0.00042158516020236085
asS'beginners'
p935
(lp936
F0.00044603033006244426
aF0.0012647554806070826
asS'misadvertised'
p937
(lp938
F0.00044603033006244426
aF0.0008431703204047217
asS'sturdy'
p939
(lp940
F0.0013380909901873326
aF0.00042158516020236085
asS'mobile'
p941
(lp942
F0.0008920606601248885
aF0.00042158516020236085
asS'average'
p943
(lp944
F0.001784121320249777
aF0.002529510961214165
asS'request'
p945
(lp946
F0.00044603033006244426
aF0.0008431703204047217
asS'order'
p947
(lp948
F0.00044603033006244426
aF0.0008431703204047217
asS'unreasonably'
p949
(lp950
F0.00044603033006244426
aF0.0008431703204047217
asS'gorgeatte'
p951
(lp952
F0.00044603033006244426
aF0.0008431703204047217
asS'professional'
p953
(lp954
F0.0008920606601248885
aF0.00042158516020236085
asS'entertaining'
p955
(lp956
F0.0008920606601248885
aF0.00042158516020236085
asS'notch'
p957
(lp958
F0.0008920606601248885
aF0.00042158516020236085
asS'away'
p959
(lp960
F0.00044603033006244426
aF0.0008431703204047217
asS'came'
p961
(lp962
F0.00044603033006244426
aF0.0012647554806070826
asS'printheads'
p963
(lp964
F0.00044603033006244426
aF0.0008431703204047217
asS'overpriced'
p965
(lp966
F0.00044603033006244426
aF0.0008431703204047217
asS'gold'
p967
(lp968
F0.0008920606601248885
aF0.00042158516020236085
asS'summer'
p969
(lp970
F0.0008920606601248885
aF0.00042158516020236085
asS'please'
p971
(lp972
F0.00044603033006244426
aF0.0016863406408094434
asS'system'
p973
(lp974
F0.00044603033006244426
aF0.0012647554806070826
asS'cheap'
p975
(lp976
F0.0008920606601248885
aF0.00505902192242833
asS'colors'
p977
(lp978
F0.0008920606601248885
aF0.00042158516020236085
asS'shoe'
p979
(lp980
F0.0008920606601248885
aF0.00042158516020236085
asS'utter'
p981
(lp982
F0.00044603033006244426
aF0.0008431703204047217
asS'tend'
p983
(lp984
F0.00044603033006244426
aF0.0008431703204047217
asS'fine'
p985
(lp986
F0.0022301516503122213
aF0.0012647554806070826
asS'find'
p987
(lp988
F0.0008920606601248885
aF0.0008431703204047217
asS'help'
p989
(lp990
F0.00044603033006244426
aF0.0008431703204047217
asS'fibre'
p991
(lp992
F0.00044603033006244426
aF0.0008431703204047217
asS'slow'
p993
(lp994
F0.00044603033006244426
aF0.002529510961214165
asS'thriller'
p995
(lp996
F0.0008920606601248885
aF0.00042158516020236085
asS'treasure'
p997
(lp998
F0.0008920606601248885
aF0.00042158516020236085
asS'written'
p999
(lp1000
F0.0008920606601248885
aF0.0008431703204047217
asS'unhappy'
p1001
(lp1002
F0.00044603033006244426
aF0.0012647554806070826
asS'should'
p1003
(lp1004
F0.0008920606601248885
aF0.00042158516020236085
asS'won'
p1005
(lp1006
F0.0008920606601248885
aF0.00042158516020236085
asS'black'
p1007
(lp1008
F0.0008920606601248885
aF0.00042158516020236085
asS'buying'
p1009
(lp1010
F0.0022301516503122213
aF0.0012647554806070826
asS'rich'
p1011
(lp1012
F0.0008920606601248885
aF0.00042158516020236085
asS'money'
p1013
(lp1014
F0.0031222123104371097
aF0.0042158516020236085
asS'stain'
p1015
(lp1016
F0.00044603033006244426
aF0.0008431703204047217
asS'inferior'
p1017
(lp1018
F0.00044603033006244426
aF0.0008431703204047217
asS'wearing'
p1019
(lp1020
F0.0008920606601248885
aF0.00042158516020236085
asS'handle'
p1021
(lp1022
F0.0008920606601248885
aF0.00042158516020236085
asS'above'
p1023
(lp1024
F0.0008920606601248885
aF0.00042158516020236085
asS'loved'
p1025
(lp1026
F0.007136485280999108
aF0.00042158516020236085
asS'overall'
p1027
(lp1028
F0.0013380909901873326
aF0.0008431703204047217
asS'expectation'
p1029
(lp1030
F0.00044603033006244426
aF0.0012647554806070826
asS'satisfied'
p1031
(lp1032
F0.0031222123104371097
aF0.0021079258010118043
asS'pocket'
p1033
(lp1034
F0.0008920606601248885
aF0.00042158516020236085
asS'feels'
p1035
(lp1036
F0.00044603033006244426
aF0.0008431703204047217
asS'ones'
p1037
(lp1038
F0.0013380909901873326
aF0.00042158516020236085
asS'sliverygray'
p1039
(lp1040
F0.00044603033006244426
aF0.0008431703204047217
asS'perfection'
p1041
(lp1042
F0.0008920606601248885
aF0.00042158516020236085
asS'buyer'
p1043
(lp1044
F0.00044603033006244426
aF0.0008431703204047217
asS'nasty'
p1045
(lp1046
F0.00044603033006244426
aF0.0008431703204047217
asS'luks'
p1047
(lp1048
F0.0008920606601248885
aF0.00042158516020236085
asS'smash'
p1049
(lp1050
F0.00044603033006244426
aF0.0008431703204047217
asS'runs'
p1051
(lp1052
F0.0013380909901873326
aF0.0008431703204047217
asS'stitching'
p1053
(lp1054
F0.0008920606601248885
aF0.0012647554806070826
asS'lame'
p1055
(lp1056
F0.00044603033006244426
aF0.0008431703204047217
asS'boarder'
p1057
(lp1058
F0.0008920606601248885
aF0.00042158516020236085
asS'twice'
p1059
(lp1060
F0.00044603033006244426
aF0.0008431703204047217
asS'bad'
p1061
(lp1062
F0.0022301516503122213
aF0.008431703204047217
asS'stuff'
p1063
(lp1064
F0.0008920606601248885
aF0.0008431703204047217
asS'hype'
p1065
(lp1066
F0.00044603033006244426
aF0.0008431703204047217
asS'tablets'
p1067
(lp1068
F0.0008920606601248885
aF0.00042158516020236085
asS'finishing'
p1069
(lp1070
F0.00044603033006244426
aF0.0008431703204047217
asS'steal'
p1071
(lp1072
F0.0008920606601248885
aF0.00042158516020236085
asS'thumbs'
p1073
(lp1074
F0.00044603033006244426
aF0.0008431703204047217
asS'affordable'
p1075
(lp1076
F0.0013380909901873326
aF0.00042158516020236085
asS'set'
p1077
(lp1078
F0.0013380909901873326
aF0.0008431703204047217
asS'art'
p1079
(lp1080
F0.0008920606601248885
aF0.00042158516020236085
asS'disaster'
p1081
(lp1082
F0.00044603033006244426
aF0.0008431703204047217
asS'fascinating'
p1083
(lp1084
F0.0008920606601248885
aF0.00042158516020236085
asS'attached'
p1085
(lp1086
F0.0008920606601248885
aF0.00042158516020236085
asS'enjoyed'
p1087
(lp1088
F0.0008920606601248885
aF0.00042158516020236085
asS'edition'
p1089
(lp1090
F0.0008920606601248885
aF0.00042158516020236085
asS'dumb'
p1091
(lp1092
F0.00044603033006244426
aF0.0008431703204047217
asS'racket'
p1093
(lp1094
F0.00044603033006244426
aF0.0012647554806070826
asS'smashes'
p1095
(lp1096
F0.00044603033006244426
aF0.0008431703204047217
asS'unusably'
p1097
(lp1098
F0.00044603033006244426
aF0.0008431703204047217
asS'best'
p1099
(lp1100
F0.004014272970561998
aF0.0008431703204047217
asS'pattern'
p1101
(lp1102
F0.0008920606601248885
aF0.00042158516020236085
asS'wow'
p1103
(lp1104
F0.0013380909901873326
aF0.0008431703204047217
asS'definite'
p1105
(lp1106
F0.0008920606601248885
aF0.00042158516020236085
asS'artificial'
p1107
(lp1108
F0.00044603033006244426
aF0.0008431703204047217
asS'superb'
p1109
(lp1110
F0.0022301516503122213
aF0.00042158516020236085
asS'junkies'
p1111
(lp1112
F0.00044603033006244426
aF0.0008431703204047217
asS'behind'
p1113
(lp1114
F0.00044603033006244426
aF0.0008431703204047217
asS'future'
p1115
(lp1116
F0.0008920606601248885
aF0.00042158516020236085
asS'faile'
p1117
(lp1118
F0.00044603033006244426
aF0.0008431703204047217
asS'embroidery'
p1119
(lp1120
F0.0008920606601248885
aF0.00042158516020236085
asS'horrible'
p1121
(lp1122
F0.00044603033006244426
aF0.002529510961214165
asS'reading'
p1123
(lp1124
F0.0008920606601248885
aF0.00042158516020236085
asS'bought'
p1125
(lp1126
F0.0013380909901873326
aF0.00042158516020236085
asS'available'
p1127
(lp1128
F0.0013380909901873326
aF0.0008431703204047217
asS'loose'
p1129
(lp1130
F0.00044603033006244426
aF0.0012647554806070826
asS'wears'
p1131
(lp1132
F0.0013380909901873326
aF0.00042158516020236085
asS'missing'
p1133
(lp1134
F0.0008920606601248885
aF0.0008431703204047217
asS'blaster'
p1135
(lp1136
F0.00044603033006244426
aF0.0008431703204047217
asS'screen'
p1137
(lp1138
F0.00044603033006244426
aF0.0008431703204047217
asS'were'
p1139
(lp1140
F0.00044603033006244426
aF0.002529510961214165
asS'job'
p1141
(lp1142
F0.0013380909901873326
aF0.00042158516020236085
asS'wear'
p1143
(lp1144
F0.0026761819803746653
aF0.0016863406408094434
asS'interface'
p1145
(lp1146
F0.00044603033006244426
aF0.0008431703204047217
asS'fittings'
p1147
(lp1148
F0.0013380909901873326
aF0.00042158516020236085
asS'received'
p1149
(lp1150
F0.00044603033006244426
aF0.002529510961214165
asS'piece'
p1151
(lp1152
F0.00044603033006244426
aF0.0021079258010118043
asS'last'
p1153
(lp1154
F0.00044603033006244426
aF0.0008431703204047217
asS'tablet'
p1155
(lp1156
F0.003568242640499554
aF0.0016863406408094434
asS'fault'
p1157
(lp1158
F0.00044603033006244426
aF0.0008431703204047217
asS'heating'
p1159
(lp1160
F0.00044603033006244426
aF0.0008431703204047217
asS'disappointment'
p1161
(lp1162
F0.00044603033006244426
aF0.0008431703204047217
asS'let'
p1163
(lp1164
F0.00044603033006244426
aF0.0008431703204047217
asS'placebo'
p1165
(lp1166
F0.00044603033006244426
aF0.0008431703204047217
asS'whole'
p1167
(lp1168
F0.0008920606601248885
aF0.0008431703204047217
asS'comes'
p1169
(lp1170
F0.00044603033006244426
aF0.0012647554806070826
asS'load'
p1171
(lp1172
F0.00044603033006244426
aF0.0008431703204047217
asS'gorgeous'
p1173
(lp1174
F0.001784121320249777
aF0.00042158516020236085
asS'liked'
p1175
(lp1176
F0.0013380909901873326
aF0.00042158516020236085
asS'color'
p1177
(lp1178
F0.0031222123104371097
aF0.002529510961214165
asS'sweet'
p1179
(lp1180
F0.0008920606601248885
aF0.00042158516020236085
asS'others'
p1181
(lp1182
F0.0008920606601248885
aF0.00042158516020236085
asS'period'
p1183
(lp1184
F0.0008920606601248885
aF0.00042158516020236085
asS'height'
p1185
(lp1186
F0.00044603033006244426
aF0.0012647554806070826
asS'packaging'
p1187
(lp1188
F0.0008920606601248885
aF0.002529510961214165
asS'simply'
p1189
(lp1190
F0.001784121320249777
aF0.00042158516020236085
asS'likes'
p1191
(lp1192
F0.0008920606601248885
aF0.00042158516020236085
asS'enthralling'
p1193
(lp1194
F0.0008920606601248885
aF0.00042158516020236085
asS'table'
p1195
(lp1196
F0.0026761819803746653
aF0.002951096121416526
asS'narrowed'
p1197
(lp1198
F0.00044603033006244426
aF0.0008431703204047217
asS'trust'
p1199
(lp1200
F0.00044603033006244426
aF0.0008431703204047217
asS'expensive'
p1201
(lp1202
F0.0013380909901873326
aF0.0008431703204047217
asS'late'
p1203
(lp1204
F0.00044603033006244426
aF0.0008431703204047217
asS'strong'
p1205
(lp1206
F0.00044603033006244426
aF0.0008431703204047217
asS'described'
p1207
(lp1208
F0.0013380909901873326
aF0.00042158516020236085
asS'raise'
p1209
(lp1210
F0.00044603033006244426
aF0.0008431703204047217
asS'tremendous'
p1211
(lp1212
F0.0008920606601248885
aF0.00042158516020236085
asS'decent'
p1213
(lp1214
F0.0026761819803746653
aF0.0008431703204047217
asS'create'
p1215
(lp1216
F0.0008920606601248885
aF0.00042158516020236085
asS'due'
p1217
(lp1218
F0.00044603033006244426
aF0.0008431703204047217
asS'been'
p1219
(lp1220
F0.0008920606601248885
aF0.00042158516020236085
asS'mark'
p1221
(lp1222
F0.00044603033006244426
aF0.002529510961214165
asS'quie'
p1223
(lp1224
F0.0008920606601248885
aF0.00042158516020236085
asS'much'
p1225
(lp1226
F0.0026761819803746653
aF0.00042158516020236085
asS'dont'
p1227
(lp1228
F0.0008920606601248885
aF0.006323777403035413
asS'wobbly'
p1229
(lp1230
F0.00044603033006244426
aF0.0012647554806070826
asS'basic'
p1231
(lp1232
F0.0013380909901873326
aF0.0008431703204047217
asS'expected'
p1233
(lp1234
F0.0026761819803746653
aF0.003372681281618887
asS'waste'
p1235
(lp1236
F0.00044603033006244426
aF0.00505902192242833
asS'spoiling'
p1237
(lp1238
F0.00044603033006244426
aF0.0008431703204047217
asS'wants'
p1239
(lp1240
F0.00044603033006244426
aF0.0008431703204047217
asS'shoulders'
p1241
(lp1242
F0.0008920606601248885
aF0.0012647554806070826
asS'both'
p1243
(lp1244
F0.0013380909901873326
aF0.00042158516020236085
asS'turned'
p1245
(lp1246
F0.00044603033006244426
aF0.0008431703204047217
asS'body'
p1247
(lp1248
F0.00044603033006244426
aF0.0008431703204047217
asS'else'
p1249
(lp1250
F0.00044603033006244426
aF0.0008431703204047217
asS'sleeves'
p1251
(lp1252
F0.0008920606601248885
aF0.0016863406408094434
asS'personally'
p1253
(lp1254
F0.0013380909901873326
aF0.00042158516020236085
asS'worked'
p1255
(lp1256
F0.0008920606601248885
aF0.00042158516020236085
asS'sad'
p1257
(lp1258
F0.0008920606601248885
aF0.00042158516020236085
asS'novel'
p1259
(lp1260
F0.0013380909901873326
aF0.0008431703204047217
asS'straight'
p1261
(lp1262
F0.00044603033006244426
aF0.0008431703204047217
asS'appearance'
p1263
(lp1264
F0.00044603033006244426
aF0.0008431703204047217
asS'budget'
p1265
(lp1266
F0.0008920606601248885
aF0.00042158516020236085
asS'value'
p1267
(lp1268
F0.001784121320249777
aF0.00042158516020236085
asS'healthy'
p1269
(lp1270
F0.0008920606601248885
aF0.00042158516020236085
asS'while'
p1271
(lp1272
F0.00044603033006244426
aF0.0008431703204047217
asS'neat'
p1273
(lp1274
F0.0008920606601248885
aF0.00042158516020236085
asS'reliably'
p1275
(lp1276
F0.00044603033006244426
aF0.0008431703204047217
asS'many'
p1277
(lp1278
F0.0008920606601248885
aF0.0008431703204047217
asS'newspaper'
p1279
(lp1280
F0.00044603033006244426
aF0.0008431703204047217
asS'advisable'
p1281
(lp1282
F0.00044603033006244426
aF0.0008431703204047217
asS'coolest'
p1283
(lp1284
F0.0008920606601248885
aF0.00042158516020236085
asS'adjusts'
p1285
(lp1286
F0.0008920606601248885
aF0.00042158516020236085
asS'costly'
p1287
(lp1288
F0.00044603033006244426
aF0.0008431703204047217
asS'hoping'
p1289
(lp1290
F0.00044603033006244426
aF0.0008431703204047217
asS'almost'
p1291
(lp1292
F0.00044603033006244426
aF0.0008431703204047217
asS'motivational'
p1293
(lp1294
F0.0008920606601248885
aF0.00042158516020236085
asS'ir'
p1295
(lp1296
F0.00044603033006244426
aF0.0008431703204047217
asS'canon'
p1297
(lp1298
F0.00044603033006244426
aF0.0008431703204047217
asS'disappointing'
p1299
(lp1300
F0.00044603033006244426
aF0.0016863406408094434
asS'cant'
p1301
(lp1302
F0.0013380909901873326
aF0.0021079258010118043
asS'beautifully'
p1303
(lp1304
F0.0013380909901873326
aF0.00042158516020236085
asS'turner'
p1305
(lp1306
F0.0013380909901873326
aF0.00042158516020236085
asS'saddening'
p1307
(lp1308
F0.00044603033006244426
aF0.0008431703204047217
asS'funny'
p1309
(lp1310
F0.0013380909901873326
aF0.00042158516020236085
asS'different'
p1311
(lp1312
F0.0008920606601248885
aF0.0037942664418212477
asS'shirt'
p1313
(lp1314
F0.00044603033006244426
aF0.002529510961214165
asS'anymore'
p1315
(lp1316
F0.00044603033006244426
aF0.0008431703204047217
asS'shiny'
p1317
(lp1318
F0.0008920606601248885
aF0.00042158516020236085
asS'suggest'
p1319
(lp1320
F0.00044603033006244426
aF0.0008431703204047217
asS'make'
p1321
(lp1322
F0.0008920606601248885
aF0.00042158516020236085
asS'same'
p1323
(lp1324
F0.0022301516503122213
aF0.0008431703204047217
asS'varies'
p1325
(lp1326
F0.00044603033006244426
aF0.0008431703204047217
asS'paulo'
p1327
(lp1328
F0.0008920606601248885
aF0.00042158516020236085
asS'amazingly'
p1329
(lp1330
F0.0008920606601248885
aF0.00042158516020236085
asS'complaints'
p1331
(lp1332
F0.0008920606601248885
aF0.00042158516020236085
asS'party'
p1333
(lp1334
F0.0008920606601248885
aF0.00042158516020236085
asS'flair'
p1335
(lp1336
F0.0008920606601248885
aF0.00042158516020236085
asS'higher'
p1337
(lp1338
F0.00044603033006244426
aF0.0008431703204047217
asS'breakdown'
p1339
(lp1340
F0.00044603033006244426
aF0.0008431703204047217
asS'meets'
p1341
(lp1342
F0.0008920606601248885
aF0.00042158516020236085
asS'finish'
p1343
(lp1344
F0.00044603033006244426
aF0.0008431703204047217
asS'slightly'
p1345
(lp1346
F0.00044603033006244426
aF0.0008431703204047217
asS'keys'
p1347
(lp1348
F0.00044603033006244426
aF0.0008431703204047217
asS'fruit'
p1349
(lp1350
F0.00044603033006244426
aF0.0008431703204047217
asS'arrived'
p1351
(lp1352
F0.0008920606601248885
aF0.0012647554806070826
asS'user'
p1353
(lp1354
F0.001784121320249777
aF0.00042158516020236085
asS'opinion'
p1355
(lp1356
F0.00044603033006244426
aF0.0008431703204047217
asS'robust'
p1357
(lp1358
F0.0008920606601248885
aF0.00042158516020236085
asS'terribly'
p1359
(lp1360
F0.00044603033006244426
aF0.0008431703204047217
asS'wyswyg'
p1361
(lp1362
F0.0008920606601248885
aF0.00042158516020236085
asS'collar'
p1363
(lp1364
F0.00044603033006244426
aF0.0008431703204047217
asS'tighter'
p1365
(lp1366
F0.00044603033006244426
aF0.0008431703204047217
asS'safe'
p1367
(lp1368
F0.00044603033006244426
aF0.0016863406408094434
asS'suitable'
p1369
(lp1370
F0.0008920606601248885
aF0.0008431703204047217
asS'off'
p1371
(lp1372
F0.00044603033006244426
aF0.0008431703204047217
asS'center'
p1373
(lp1374
F0.00044603033006244426
aF0.0012647554806070826
asS'fully'
p1375
(lp1376
F0.001784121320249777
aF0.00042158516020236085
asS'colour'
p1377
(lp1378
F0.001784121320249777
aF0.0021079258010118043
asS'no'
p1379
(lp1380
F0.0013380909901873326
aF0.00505902192242833
asS'spent'
p1381
(lp1382
F0.0008920606601248885
aF0.00042158516020236085
asS'options'
p1383
(lp1384
F0.0008920606601248885
aF0.00042158516020236085
asS'person'
p1385
(lp1386
F0.0008920606601248885
aF0.0008431703204047217
asS'sheer'
p1387
(lp1388
F0.00044603033006244426
aF0.0008431703204047217
asS'without'
p1389
(lp1390
F0.0008920606601248885
aF0.00042158516020236085
asS'bottle'
p1391
(lp1392
F0.00044603033006244426
aF0.0008431703204047217
asS'convenient'
p1393
(lp1394
F0.0008920606601248885
aF0.00042158516020236085
asS'model'
p1395
(lp1396
F0.0008920606601248885
aF0.0012647554806070826
asS'thats'
p1397
(lp1398
F0.0008920606601248885
aF0.00042158516020236085
asS'left'
p1399
(lp1400
F0.00044603033006244426
aF0.0008431703204047217
asS'cenizas'
p1401
(lp1402
F0.0008920606601248885
aF0.00042158516020236085
asS'abilities'
p1403
(lp1404
F0.00044603033006244426
aF0.0008431703204047217
asS'less'
p1405
(lp1406
F0.0008920606601248885
aF0.00042158516020236085
asS'photo'
p1407
(lp1408
F0.0008920606601248885
aF0.00042158516020236085
asS'laptop'
p1409
(lp1410
F0.00044603033006244426
aF0.0008431703204047217
asS'adjustments'
p1411
(lp1412
F0.0008920606601248885
aF0.00042158516020236085
asS'front'
p1413
(lp1414
F0.0008920606601248885
aF0.00042158516020236085
asS'shape'
p1415
(lp1416
F0.00044603033006244426
aF0.0008431703204047217
asS'plagued'
p1417
(lp1418
F0.00044603033006244426
aF0.0008431703204047217
asS'advertised'
p1419
(lp1420
F0.0008920606601248885
aF0.0008431703204047217
asS'touch'
p1421
(lp1422
F0.00044603033006244426
aF0.0008431703204047217
asS'speed'
p1423
(lp1424
F0.00044603033006244426
aF0.0012647554806070826
asS'yet'
p1425
(lp1426
F0.0013380909901873326
aF0.00042158516020236085
asS'down'
p1427
(lp1428
F0.0013380909901873326
aF0.002529510961214165
asS'buyers'
p1429
(lp1430
F0.0008920606601248885
aF0.00042158516020236085
asS'cut'
p1431
(lp1432
F0.0008920606601248885
aF0.0021079258010118043
asS'lehenga'
p1433
(lp1434
F0.00044603033006244426
aF0.0008431703204047217
asS'sheldon'
p1435
(lp1436
F0.0013380909901873326
aF0.00042158516020236085
asS'spellbinding'
p1437
(lp1438
F0.0008920606601248885
aF0.00042158516020236085
asS'hated'
p1439
(lp1440
F0.00044603033006244426
aF0.0008431703204047217
asS'seems'
p1441
(lp1442
F0.00044603033006244426
aF0.0012647554806070826
asS'fitting'
p1443
(lp1444
F0.0013380909901873326
aF0.003372681281618887
asS'simple'
p1445
(lp1446
F0.0013380909901873326
aF0.00042158516020236085
asS'add'
p1447
(lp1448
F0.0008920606601248885
aF0.00042158516020236085
asS'book'
p1449
(lp1450
F0.006690454950936664
aF0.003372681281618887
asS'bank'
p1451
(lp1452
F0.0008920606601248885
aF0.00042158516020236085
asS'easy'
p1453
(lp1454
F0.0031222123104371097
aF0.0012647554806070826
asS'continuation'
p1455
(lp1456
F0.0008920606601248885
aF0.00042158516020236085
asS'wildcraft'
p1457
(lp1458
F0.00044603033006244426
aF0.0008431703204047217
asS'gave'
p1459
(lp1460
F0.0008920606601248885
aF0.0008431703204047217
asS'real'
p1461
(lp1462
F0.0008920606601248885
aF0.00042158516020236085
asS'wont'
p1463
(lp1464
F0.0013380909901873326
aF0.00042158516020236085
asS'around'
p1465
(lp1466
F0.00044603033006244426
aF0.0012647554806070826
asS'layering'
p1467
(lp1468
F0.0008920606601248885
aF0.00042158516020236085
asS'read'
p1469
(lp1470
F0.0044603033006244425
aF0.0012647554806070826
asS'big'
p1471
(lp1472
F0.00044603033006244426
aF0.0021079258010118043
asS'couple'
p1473
(lp1474
F0.0008920606601248885
aF0.00042158516020236085
asS'unlimited'
p1475
(lp1476
F0.00044603033006244426
aF0.0008431703204047217
asS'dark'
p1477
(lp1478
F0.00044603033006244426
aF0.0012647554806070826
asS'game'
p1479
(lp1480
F0.00044603033006244426
aF0.0008431703204047217
asS'five'
p1481
(lp1482
F0.0008920606601248885
aF0.00042158516020236085
asS'bit'
p1483
(lp1484
F0.0013380909901873326
aF0.0008431703204047217
asS'glitches'
p1485
(lp1486
F0.00044603033006244426
aF0.0012647554806070826
asS'disappointed'
p1487
(lp1488
F0.00044603033006244426
aF0.00463743676222597
asS'apart'
p1489
(lp1490
F0.00044603033006244426
aF0.0008431703204047217
asS'shoulder'
p1491
(lp1492
F0.0013380909901873326
aF0.00042158516020236085
asS'dignity'
p1493
(lp1494
F0.0008920606601248885
aF0.00042158516020236085
asS'like'
p1495
(lp1496
F0.0044603033006244425
aF0.0042158516020236085
asS'lost'
p1497
(lp1498
F0.00044603033006244426
aF0.0008431703204047217
asS'photographs'
p1499
(lp1500
F0.00044603033006244426
aF0.0008431703204047217
asS'qualitative'
p1501
(lp1502
F0.0008920606601248885
aF0.00042158516020236085
asS'serves'
p1503
(lp1504
F0.0008920606601248885
aF0.00042158516020236085
asS'oddly'
p1505
(lp1506
F0.00044603033006244426
aF0.0008431703204047217
asS'pleats'
p1507
(lp1508
F0.0008920606601248885
aF0.00042158516020236085
asS'overrated'
p1509
(lp1510
F0.00044603033006244426
aF0.0012647554806070826
asS'clutch'
p1511
(lp1512
F0.0008920606601248885
aF0.00042158516020236085
asS'stylish'
p1513
(lp1514
F0.0026761819803746653
aF0.00042158516020236085
asS'works'
p1515
(lp1516
F0.0022301516503122213
aF0.0008431703204047217
asS'soft'
p1517
(lp1518
F0.0031222123104371097
aF0.00042158516020236085
asS'page'
p1519
(lp1520
F0.0013380909901873326
aF0.00042158516020236085
asS'replacement'
p1521
(lp1522
F0.00044603033006244426
aF0.0008431703204047217
asS'satisfactory'
p1523
(lp1524
F0.0008920606601248885
aF0.0008431703204047217
asS'right'
p1525
(lp1526
F0.001784121320249777
aF0.00042158516020236085
asS'old'
p1527
(lp1528
F0.00044603033006244426
aF0.0008431703204047217
asS'shabby'
p1529
(lp1530
F0.0008920606601248885
aF0.00042158516020236085
asS'deal'
p1531
(lp1532
F0.0013380909901873326
aF0.00042158516020236085
asS'exposed'
p1533
(lp1534
F0.00044603033006244426
aF0.0008431703204047217
asS'absolutely'
p1535
(lp1536
F0.0008920606601248885
aF0.0008431703204047217
asS'lookwise'
p1537
(lp1538
F0.00044603033006244426
aF0.0008431703204047217
asS'somehow'
p1539
(lp1540
F0.00044603033006244426
aF0.0008431703204047217
asS'library'
p1541
(lp1542
F0.0008920606601248885
aF0.00042158516020236085
asS'towards'
p1543
(lp1544
F0.00044603033006244426
aF0.0008431703204047217
asS'glove'
p1545
(lp1546
F0.0008920606601248885
aF0.00042158516020236085
asS'specified'
p1547
(lp1548
F0.0008920606601248885
aF0.00042158516020236085
asS'proper'
p1549
(lp1550
F0.0008920606601248885
aF0.0008431703204047217
asS'theyre'
p1551
(lp1552
F0.0013380909901873326
aF0.00042158516020236085
asS'bizarre'
p1553
(lp1554
F0.00044603033006244426
aF0.0008431703204047217
asS'delivered'
p1555
(lp1556
F0.001784121320249777
aF0.0016863406408094434
asS'friend'
p1557
(lp1558
F0.0008920606601248885
aF0.00042158516020236085
asS'bottom'
p1559
(lp1560
F0.00044603033006244426
aF0.0008431703204047217
asS'avoid'
p1561
(lp1562
F0.00044603033006244426
aF0.0008431703204047217
asS'perfetly'
p1563
(lp1564
F0.0008920606601248885
aF0.00042158516020236085
asS'per'
p1565
(lp1566
F0.0008920606601248885
aF0.0012647554806070826
asS'seller'
p1567
(lp1568
F0.0008920606601248885
aF0.00042158516020236085
asS'wrong'
p1569
(lp1570
F0.00044603033006244426
aF0.0008431703204047217
asS'everything'
p1571
(lp1572
F0.0022301516503122213
aF0.0008431703204047217
asS'epic'
p1573
(lp1574
F0.0013380909901873326
aF0.00042158516020236085
asS'adorable'
p1575
(lp1576
F0.0008920606601248885
aF0.00042158516020236085
asS'blurry'
p1577
(lp1578
F0.00044603033006244426
aF0.0008431703204047217
asS'coller'
p1579
(lp1580
F0.0008920606601248885
aF0.00042158516020236085
asS'neatly'
p1581
(lp1582
F0.00044603033006244426
aF0.0008431703204047217
asS'run'
p1583
(lp1584
F0.00044603033006244426
aF0.0012647554806070826
asS'power'
p1585
(lp1586
F0.0008920606601248885
aF0.00042158516020236085
asS'night'
p1587
(lp1588
F0.0008920606601248885
aF0.00042158516020236085
asS'iconic'
p1589
(lp1590
F0.0008920606601248885
aF0.00042158516020236085
asS'stellar'
p1591
(lp1592
F0.0008920606601248885
aF0.00042158516020236085
asS'restrictive'
p1593
(lp1594
F0.00044603033006244426
aF0.0008431703204047217
asS'although'
p1595
(lp1596
F0.0008920606601248885
aF0.00042158516020236085
asS'keeper'
p1597
(lp1598
F0.0008920606601248885
aF0.00042158516020236085
asS'super'
p1599
(lp1600
F0.0031222123104371097
aF0.00042158516020236085
asS'throw'
p1601
(lp1602
F0.00044603033006244426
aF0.0008431703204047217
asS'hogwash'
p1603
(lp1604
F0.00044603033006244426
aF0.0008431703204047217
asS'plastic'
p1605
(lp1606
F0.00044603033006244426
aF0.0008431703204047217
asS'goods'
p1607
(lp1608
F0.00044603033006244426
aF0.0008431703204047217
asS'actual'
p1609
(lp1610
F0.00044603033006244426
aF0.0012647554806070826
asS'wore'
p1611
(lp1612
F0.0008920606601248885
aF0.00042158516020236085
asS'compared'
p1613
(lp1614
F0.00044603033006244426
aF0.0012647554806070826
asS'chance'
p1615
(lp1616
F0.0008920606601248885
aF0.00042158516020236085
asS'shipping'
p1617
(lp1618
F0.00044603033006244426
aF0.0008431703204047217
asS'misleading'
p1619
(lp1620
F0.00044603033006244426
aF0.0012647554806070826
asS'plus'
p1621
(lp1622
F0.0008920606601248885
aF0.00042158516020236085
asS'stand'
p1623
(lp1624
F0.0008920606601248885
aF0.00042158516020236085
asS'pockets'
p1625
(lp1626
F0.0008920606601248885
aF0.00042158516020236085
asS'wonders'
p1627
(lp1628
F0.00044603033006244426
aF0.0008431703204047217
asS'backup'
p1629
(lp1630
F0.00044603033006244426
aF0.0008431703204047217
asS'bleeds'
p1631
(lp1632
F0.00044603033006244426
aF0.0008431703204047217
asS'printed'
p1633
(lp1634
F0.0008920606601248885
aF0.0008431703204047217
asS'heavy'
p1635
(lp1636
F0.00044603033006244426
aF0.0012647554806070826
asS'raised'
p1637
(lp1638
F0.00044603033006244426
aF0.0008431703204047217
asS'own'
p1639
(lp1640
F0.0008920606601248885
aF0.00042158516020236085
asS'garbage'
p1641
(lp1642
F0.00044603033006244426
aF0.0021079258010118043
asS'stitched'
p1643
(lp1644
F0.0008920606601248885
aF0.0008431703204047217
asS'slippery'
p1645
(lp1646
F0.00044603033006244426
aF0.0008431703204047217
asS'image'
p1647
(lp1648
F0.00044603033006244426
aF0.0008431703204047217
asS'within'
p1649
(lp1650
F0.0008920606601248885
aF0.00042158516020236085
asS'child'
p1651
(lp1652
F0.0008920606601248885
aF0.00042158516020236085
asS'nonsense'
p1653
(lp1654
F0.00044603033006244426
aF0.0012647554806070826
asS'stop'
p1655
(lp1656
F0.0008920606601248885
aF0.0008431703204047217
asS'pair'
p1657
(lp1658
F0.0008920606601248885
aF0.00042158516020236085
asS'doesnt'
p1659
(lp1660
F0.0008920606601248885
aF0.0008431703204047217
asS'parties'
p1661
(lp1662
F0.0008920606601248885
aF0.00042158516020236085
asS'couldnt'
p1663
(lp1664
F0.00044603033006244426
aF0.0008431703204047217
asS'pointless'
p1665
(lp1666
F0.00044603033006244426
aF0.0008431703204047217
asS'smells'
p1667
(lp1668
F0.00044603033006244426
aF0.0008431703204047217
asS'racquet'
p1669
(lp1670
F0.0008920606601248885
aF0.00042158516020236085
asS'dermatologist'
p1671
(lp1672
F0.00044603033006244426
aF0.0008431703204047217
asS'samsungs'
p1673
(lp1674
F0.0008920606601248885
aF0.00042158516020236085
asS'fabric'
p1675
(lp1676
F0.0053523639607493305
aF0.0016863406408094434
asS'transfer'
p1677
(lp1678
F0.00044603033006244426
aF0.0008431703204047217
asS'people'
p1679
(lp1680
F0.0008920606601248885
aF0.0008431703204047217
asS'apps'
p1681
(lp1682
F0.00044603033006244426
aF0.0008431703204047217
asS'gift'
p1683
(lp1684
F0.0013380909901873326
aF0.00042158516020236085
asS'fast'
p1685
(lp1686
F0.0026761819803746653
aF0.00042158516020236085
asS'why'
p1687
(lp1688
F0.00044603033006244426
aF0.0008431703204047217
asS'prettier'
p1689
(lp1690
F0.0008920606601248885
aF0.00042158516020236085
asS'lot'
p1691
(lp1692
F0.0008920606601248885
aF0.0008431703204047217
asS'recommendable'
p1693
(lp1694
F0.0008920606601248885
aF0.00042158516020236085
asS'deteriorating'
p1695
(lp1696
F0.00044603033006244426
aF0.0008431703204047217
asS'damn'
p1697
(lp1698
F0.0008920606601248885
aF0.0008431703204047217
asS'wat'
p1699
(lp1700
F0.0013380909901873326
aF0.00042158516020236085
asS'cloth'
p1701
(lp1702
F0.0013380909901873326
aF0.002529510961214165
asS'happy'
p1703
(lp1704
F0.0026761819803746653
aF0.0021079258010118043
asS'buy'
p1705
(lp1706
F0.0031222123104371097
aF0.01011804384485666
asS'battery'
p1707
(lp1708
F0.00044603033006244426
aF0.0012647554806070826
asS'complete'
p1709
(lp1710
F0.00044603033006244426
aF0.0012647554806070826
asS'form'
p1711
(lp1712
F0.00044603033006244426
aF0.0008431703204047217
asS'enough'
p1713
(lp1714
F0.0013380909901873326
aF0.0008431703204047217
asS'constantly'
p1715
(lp1716
F0.00044603033006244426
aF0.0008431703204047217
asS'relaxed'
p1717
(lp1718
F0.0008920606601248885
aF0.00042158516020236085
asS'buggy'
p1719
(lp1720
F0.00044603033006244426
aF0.0008431703204047217
asS'hv'
p1721
(lp1722
F0.0008920606601248885
aF0.00042158516020236085
asS'requested'
p1723
(lp1724
F0.00044603033006244426
aF0.0008431703204047217
asS'glamour'
p1725
(lp1726
F0.0008920606601248885
aF0.00042158516020236085
asS'jus'
p1727
(lp1728
F0.0008920606601248885
aF0.00042158516020236085
asS'hopes'
p1729
(lp1730
F0.00044603033006244426
aF0.0012647554806070826
asS'shrugs'
p1731
(lp1732
F0.00044603033006244426
aF0.0008431703204047217
asS'bugs'
p1733
(lp1734
F0.00044603033006244426
aF0.0008431703204047217
asS'true'
p1735
(lp1736
F0.001784121320249777
aF0.00042158516020236085
asS'dull'
p1737
(lp1738
F0.00044603033006244426
aF0.002529510961214165
asS'matronly'
p1739
(lp1740
F0.00044603033006244426
aF0.0008431703204047217
asS'lovely'
p1741
(lp1742
F0.0022301516503122213
aF0.00042158516020236085
asS'wise'
p1743
(lp1744
F0.00044603033006244426
aF0.0008431703204047217
asS'tab'
p1745
(lp1746
F0.00044603033006244426
aF0.0008431703204047217
asS'smooth'
p1747
(lp1748
F0.0013380909901873326
aF0.00042158516020236085
asS'devices'
p1749
(lp1750
F0.00044603033006244426
aF0.0008431703204047217
asS'ur'
p1751
(lp1752
F0.00044603033006244426
aF0.0008431703204047217
asS'below'
p1753
(lp1754
F0.00044603033006244426
aF0.0012647554806070826
asS'stories'
p1755
(lp1756
F0.0008920606601248885
aF0.00042158516020236085
asS'problem'
p1757
(lp1758
F0.0008920606601248885
aF0.0021079258010118043
asS'loving'
p1759
(lp1760
F0.0008920606601248885
aF0.00042158516020236085
asS'rickety'
p1761
(lp1762
F0.00044603033006244426
aF0.0008431703204047217
asS'display'
p1763
(lp1764
F0.00044603033006244426
aF0.0012647554806070826
asS'ordered'
p1765
(lp1766
F0.001784121320249777
aF0.0021079258010118043
asS'worthwhile'
p1767
(lp1768
F0.00044603033006244426
aF0.0008431703204047217
asS'classic'
p1769
(lp1770
F0.0008920606601248885
aF0.00042158516020236085
asS'upset'
p1771
(lp1772
F0.00044603033006244426
aF0.0008431703204047217
asS'pic'
p1773
(lp1774
F0.0013380909901873326
aF0.0012647554806070826
asS'unsafe'
p1775
(lp1776
F0.00044603033006244426
aF0.0008431703204047217
asS'fuctional'
p1777
(lp1778
F0.0008920606601248885
aF0.00042158516020236085
asS'improper'
p1779
(lp1780
F0.00044603033006244426
aF0.0012647554806070826
asS'trendy'
p1781
(lp1782
F0.0008920606601248885
aF0.00042158516020236085
asS'sometime'
p1783
(lp1784
F0.00044603033006244426
aF0.0008431703204047217
asS'disgusted'
p1785
(lp1786
F0.00044603033006244426
aF0.0008431703204047217
asS'selfhelp'
p1787
(lp1788
F0.00044603033006244426
aF0.0008431703204047217
asS'crystals'
p1789
(lp1790
F0.0008920606601248885
aF0.00042158516020236085
asS'mediocre'
p1791
(lp1792
F0.00044603033006244426
aF0.0008431703204047217
asS'face'
p1793
(lp1794
F0.0008920606601248885
aF0.00042158516020236085
asS'shit'
p1795
(lp1796
F0.00044603033006244426
aF0.0008431703204047217
asS'cotton'
p1797
(lp1798
F0.00044603033006244426
aF0.0008431703204047217
asS'incorrect'
p1799
(lp1800
F0.00044603033006244426
aF0.0008431703204047217
asS'again'
p1801
(lp1802
F0.0013380909901873326
aF0.00042158516020236085
asS'repelling'
p1803
(lp1804
F0.00044603033006244426
aF0.0008431703204047217
asS'incredible'
p1805
(lp1806
F0.0008920606601248885
aF0.00042158516020236085
asS'dressed'
p1807
(lp1808
F0.0008920606601248885
aF0.00042158516020236085
asS'thanks'
p1809
(lp1810
F0.0026761819803746653
aF0.00042158516020236085
asS'occasional'
p1811
(lp1812
F0.00044603033006244426
aF0.0008431703204047217
asS'tight'
p1813
(lp1814
F0.0013380909901873326
aF0.0012647554806070826
asS'build'
p1815
(lp1816
F0.00044603033006244426
aF0.0008431703204047217
asS'definitely'
p1817
(lp1818
F0.00044603033006244426
aF0.0012647554806070826
asS'normal'
p1819
(lp1820
F0.00044603033006244426
aF0.0008431703204047217
asS'nt'
p1821
(lp1822
F0.00044603033006244426
aF0.0008431703204047217
asS'nice'
p1823
(lp1824
F0.020517395182872437
aF0.0012647554806070826
asS'poor'
p1825
(lp1826
F0.00044603033006244426
aF0.00463743676222597
asS'picture'
p1827
(lp1828
F0.0013380909901873326
aF0.0021079258010118043
asS'junk'
p1829
(lp1830
F0.00044603033006244426
aF0.0012647554806070826
asS'star'
p1831
(lp1832
F0.0008920606601248885
aF0.0008431703204047217
asS'hey'
p1833
(lp1834
F0.0008920606601248885
aF0.00042158516020236085
asS'provided'
p1835
(lp1836
F0.00044603033006244426
aF0.0008431703204047217
asS'favourite'
p1837
(lp1838
F0.0008920606601248885
aF0.00042158516020236085
asS'printing'
p1839
(lp1840
F0.00044603033006244426
aF0.0012647554806070826
asS'problems'
p1841
(lp1842
F0.00044603033006244426
aF0.0008431703204047217
asS'anywhere'
p1843
(lp1844
F0.0008920606601248885
aF0.00042158516020236085
asS'dented'
p1845
(lp1846
F0.00044603033006244426
aF0.0008431703204047217
asS'helpful'
p1847
(lp1848
F0.0008920606601248885
aF0.00042158516020236085
asS'alright'
p1849
(lp1850
F0.0008920606601248885
aF0.00042158516020236085
asS'drag'
p1851
(lp1852
F0.00044603033006244426
aF0.0008431703204047217
asS'important'
p1853
(lp1854
F0.0008920606601248885
aF0.00042158516020236085
asS'smelling'
p1855
(lp1856
F0.00044603033006244426
aF0.0008431703204047217
asS'priced'
p1857
(lp1858
F0.0008920606601248885
aF0.00042158516020236085
asS'sides'
p1859
(lp1860
F0.00044603033006244426
aF0.0008431703204047217
asS'line'
p1861
(lp1862
F0.001784121320249777
aF0.0008431703204047217
asS'opened'
p1863
(lp1864
F0.0008920606601248885
aF0.00042158516020236085
asS'remote'
p1865
(lp1866
F0.00044603033006244426
aF0.0008431703204047217
asS'samsung'
p1867
(lp1868
F0.0013380909901873326
aF0.0012647554806070826
asS'age'
p1869
(lp1870
F0.00044603033006244426
aF0.0008431703204047217
asS'daily'
p1871
(lp1872
F0.00044603033006244426
aF0.0008431703204047217
asS'jacket'
p1873
(lp1874
F0.0013380909901873326
aF0.00042158516020236085
asS'petites'
p1875
(lp1876
F0.00044603033006244426
aF0.0008431703204047217
asS'far'
p1877
(lp1878
F0.0013380909901873326
aF0.00042158516020236085
asS'original'
p1879
(lp1880
F0.0008920606601248885
aF0.0012647554806070826
as.