(dp0
S'amish'
p1
(lp2
F0.0008609556607834697
aF0.0004095004095004095
asS'versatile'
p3
(lp4
F0.0012914334911752045
aF0.0004095004095004095
asS'lace'
p5
(lp6
F0.00043047783039173483
aF0.000819000819000819
asS'beware'
p7
(lp8
F0.00043047783039173483
aF0.0020475020475020475
asS'lack'
p9
(lp10
F0.00043047783039173483
aF0.000819000819000819
asS'results'
p11
(lp12
F0.0008609556607834697
aF0.0004095004095004095
asS'felt'
p13
(lp14
F0.0008609556607834697
aF0.000819000819000819
asS'four'
p15
(lp16
F0.0008609556607834697
aF0.0004095004095004095
asS'concept'
p17
(lp18
F0.00043047783039173483
aF0.000819000819000819
asS'skin'
p19
(lp20
F0.00043047783039173483
aF0.000819000819000819
asS'shot'
p21
(lp22
F0.00043047783039173483
aF0.000819000819000819
asS'hate'
p23
(lp24
F0.00043047783039173483
aF0.0012285012285012285
asS'children'
p25
(lp26
F0.00043047783039173483
aF0.000819000819000819
asS'issues'
p27
(lp28
F0.00043047783039173483
aF0.0020475020475020475
asS'poorly'
p29
(lp30
F0.00043047783039173483
aF0.0012285012285012285
asS'compact'
p31
(lp32
F0.0012914334911752045
aF0.000819000819000819
asS'looking'
p33
(lp34
F0.002152389151958674
aF0.000819000819000819
asS'certainly'
p35
(lp36
F0.0008609556607834697
aF0.0004095004095004095
asS'smily'
p37
(lp38
F0.0008609556607834697
aF0.0004095004095004095
asS'lining'
p39
(lp40
F0.00043047783039173483
aF0.000819000819000819
asS'originality'
p41
(lp42
F0.00043047783039173483
aF0.000819000819000819
asS'lower'
p43
(lp44
F0.00043047783039173483
aF0.000819000819000819
asS'charge'
p45
(lp46
F0.00043047783039173483
aF0.000819000819000819
asS'dissatisfied'
p47
(lp48
F0.00043047783039173483
aF0.000819000819000819
asS'th'
p49
(lp50
F0.00043047783039173483
aF0.000819000819000819
asS'stable'
p51
(lp52
F0.00043047783039173483
aF0.000819000819000819
asS'friendly'
p53
(lp54
F0.0012914334911752045
aF0.0004095004095004095
asS'returned'
p55
(lp56
F0.00043047783039173483
aF0.0012285012285012285
asS'returning'
p57
(lp58
F0.00043047783039173483
aF0.000819000819000819
asS'very'
p59
(lp60
F0.017219113215669393
aF0.012694512694512694
asS'putting'
p61
(lp62
F0.0008609556607834697
aF0.0004095004095004095
asS'additional'
p63
(lp64
F0.0008609556607834697
aF0.000819000819000819
asS'decide'
p65
(lp66
F0.00043047783039173483
aF0.000819000819000819
asS'fall'
p67
(lp68
F0.0017219113215669393
aF0.0004095004095004095
asS'awful'
p69
(lp70
F0.00043047783039173483
aF0.000819000819000819
asS'little'
p71
(lp72
F0.0017219113215669393
aF0.001638001638001638
asS'condition'
p73
(lp74
F0.0008609556607834697
aF0.0004095004095004095
asS'cool'
p75
(lp76
F0.0012914334911752045
aF0.0004095004095004095
asS'delivery'
p77
(lp78
F0.004304778303917348
aF0.001638001638001638
asS'entire'
p79
(lp80
F0.00043047783039173483
aF0.000819000819000819
asS'receiving'
p81
(lp82
F0.00043047783039173483
aF0.000819000819000819
asS'impressive'
p83
(lp84
F0.0012914334911752045
aF0.000819000819000819
asS'did'
p85
(lp86
F0.00043047783039173483
aF0.000819000819000819
asS'die'
p87
(lp88
F0.0008609556607834697
aF0.0004095004095004095
asS'button'
p89
(lp90
F0.00043047783039173483
aF0.001638001638001638
asS'fragile'
p91
(lp92
F0.00043047783039173483
aF0.000819000819000819
asS'try'
p93
(lp94
F0.0008609556607834697
aF0.0004095004095004095
asS'item'
p95
(lp96
F0.00043047783039173483
aF0.0020475020475020475
asS'engrossing'
p97
(lp98
F0.0008609556607834697
aF0.0004095004095004095
asS'warranties'
p99
(lp100
F0.00043047783039173483
aF0.000819000819000819
asS'small'
p101
(lp102
F0.0012914334911752045
aF0.0045045045045045045
asS'dip'
p103
(lp104
F0.00043047783039173483
aF0.000819000819000819
asS'reliable'
p105
(lp106
F0.0008609556607834697
aF0.0004095004095004095
asS'clothes'
p107
(lp108
F0.0008609556607834697
aF0.000819000819000819
asS'guzzling'
p109
(lp110
F0.00043047783039173483
aF0.000819000819000819
asS'smaller'
p111
(lp112
F0.00043047783039173483
aF0.000819000819000819
asS'says'
p113
(lp114
F0.00043047783039173483
aF0.000819000819000819
asS'regret'
p115
(lp116
F0.0008609556607834697
aF0.0004095004095004095
asS'among'
p117
(lp118
F0.0008609556607834697
aF0.0004095004095004095
asS'obsolete'
p119
(lp120
F0.00043047783039173483
aF0.000819000819000819
asS'boots'
p121
(lp122
F0.0008609556607834697
aF0.0004095004095004095
asS'elegant'
p123
(lp124
F0.0017219113215669393
aF0.0004095004095004095
asS'second'
p125
(lp126
F0.0008609556607834697
aF0.000819000819000819
asS'cost'
p127
(lp128
F0.0008609556607834697
aF0.0004095004095004095
asS'design'
p129
(lp130
F0.003013344812742144
aF0.0012285012285012285
asS'shirts'
p131
(lp132
F0.0008609556607834697
aF0.000819000819000819
asS'corner'
p133
(lp134
F0.00043047783039173483
aF0.0012285012285012285
asS'odd'
p135
(lp136
F0.00043047783039173483
aF0.000819000819000819
asS'casual'
p137
(lp138
F0.002152389151958674
aF0.0004095004095004095
asS'stressful'
p139
(lp140
F0.0008609556607834697
aF0.0004095004095004095
asS'sub'
p141
(lp142
F0.00043047783039173483
aF0.000819000819000819
asS'giving'
p143
(lp144
F0.00043047783039173483
aF0.000819000819000819
asS'fingers'
p145
(lp146
F0.00043047783039173483
aF0.000819000819000819
asS'pleased'
p147
(lp148
F0.0012914334911752045
aF0.000819000819000819
asS'version'
p149
(lp150
F0.0008609556607834697
aF0.0004095004095004095
asS'goes'
p151
(lp152
F0.0008609556607834697
aF0.0004095004095004095
asS'new'
p153
(lp154
F0.00043047783039173483
aF0.000819000819000819
asS'ever'
p155
(lp156
F0.002152389151958674
aF0.0028665028665028664
asS'revealing'
p157
(lp158
F0.0008609556607834697
aF0.0004095004095004095
asS'full'
p159
(lp160
F0.0008609556607834697
aF0.0004095004095004095
asS'leg'
p161
(lp162
F0.0008609556607834697
aF0.0004095004095004095
asS'never'
p163
(lp164
F0.00043047783039173483
aF0.001638001638001638
asS'hours'
p165
(lp166
F0.00043047783039173483
aF0.000819000819000819
asS'china'
p167
(lp168
F0.00043047783039173483
aF0.000819000819000819
asS'ubuntu'
p169
(lp170
F0.00043047783039173483
aF0.000819000819000819
asS'quite'
p171
(lp172
F0.0008609556607834697
aF0.0004095004095004095
asS'wait'
p173
(lp174
F0.0008609556607834697
aF0.0004095004095004095
asS'box'
p175
(lp176
F0.0008609556607834697
aF0.0004095004095004095
asS'bt'
p177
(lp178
F0.00043047783039173483
aF0.000819000819000819
asS'great'
p179
(lp180
F0.013775290572535515
aF0.0020475020475020475
asS'kids'
p181
(lp182
F0.0017219113215669393
aF0.0012285012285012285
asS'daughter'
p183
(lp184
F0.0017219113215669393
aF0.000819000819000819
asS'colored'
p185
(lp186
F0.00043047783039173483
aF0.000819000819000819
asS'noticeable'
p187
(lp188
F0.0008609556607834697
aF0.0004095004095004095
asS'jams'
p189
(lp190
F0.00043047783039173483
aF0.000819000819000819
asS'receive'
p191
(lp192
F0.00043047783039173483
aF0.000819000819000819
asS'k'
p193
(lp194
F0.0008609556607834697
aF0.000819000819000819
asS'larger'
p195
(lp196
F0.00043047783039173483
aF0.000819000819000819
asS'experience'
p197
(lp198
F0.0017219113215669393
aF0.000819000819000819
asS'bulges'
p199
(lp200
F0.0008609556607834697
aF0.0004095004095004095
asS'products'
p201
(lp202
F0.0008609556607834697
aF0.001638001638001638
asS'suggestion'
p203
(lp204
F0.0008609556607834697
aF0.0004095004095004095
asS'mindblowing'
p205
(lp206
F0.0012914334911752045
aF0.0004095004095004095
asS'action'
p207
(lp208
F0.00043047783039173483
aF0.000819000819000819
asS'surely'
p209
(lp210
F0.0008609556607834697
aF0.0004095004095004095
asS'weird'
p211
(lp212
F0.00043047783039173483
aF0.000819000819000819
asS'narrow'
p213
(lp214
F0.0012914334911752045
aF0.000819000819000819
asS'makes'
p215
(lp216
F0.00043047783039173483
aF0.000819000819000819
asS'honor'
p217
(lp218
F0.00043047783039173483
aF0.000819000819000819
asS'fell'
p219
(lp220
F0.0008609556607834697
aF0.0004095004095004095
asS'plotted'
p221
(lp222
F0.0008609556607834697
aF0.0004095004095004095
asS'golden'
p223
(lp224
F0.0017219113215669393
aF0.0004095004095004095
asS'fantastic'
p225
(lp226
F0.0017219113215669393
aF0.0004095004095004095
asS'killer'
p227
(lp228
F0.00043047783039173483
aF0.000819000819000819
asS'love'
p229
(lp230
F0.006026689625484288
aF0.0004095004095004095
asS'os'
p231
(lp232
F0.00043047783039173483
aF0.000819000819000819
asS'awear'
p233
(lp234
F0.00043047783039173483
aF0.000819000819000819
asS'app'
p235
(lp236
F0.00043047783039173483
aF0.000819000819000819
asS'marked'
p237
(lp238
F0.00043047783039173483
aF0.000819000819000819
asS'highly'
p239
(lp240
F0.0017219113215669393
aF0.0004095004095004095
asS'brought'
p241
(lp242
F0.0008609556607834697
aF0.0004095004095004095
asS'visible'
p243
(lp244
F0.0008609556607834697
aF0.0004095004095004095
asS'moral'
p245
(lp246
F0.00043047783039173483
aF0.000819000819000819
asS'texture'
p247
(lp248
F0.0008609556607834697
aF0.000819000819000819
asS'motor'
p249
(lp250
F0.00043047783039173483
aF0.000819000819000819
asS'fake'
p251
(lp252
F0.00043047783039173483
aF0.0020475020475020475
asS'total'
p253
(lp254
F0.00043047783039173483
aF0.0020475020475020475
asS'unit'
p255
(lp256
F0.0008609556607834697
aF0.0004095004095004095
asS'narayan'
p257
(lp258
F0.0008609556607834697
aF0.0004095004095004095
asS'crap'
p259
(lp260
F0.00043047783039173483
aF0.0020475020475020475
asS'working'
p261
(lp262
F0.00043047783039173483
aF0.002457002457002457
asS'positive'
p263
(lp264
F0.0008609556607834697
aF0.0004095004095004095
asS'sweater'
p265
(lp266
F0.00043047783039173483
aF0.000819000819000819
asS'arms'
p267
(lp268
F0.00043047783039173483
aF0.0012285012285012285
asS'duplicate'
p269
(lp270
F0.00043047783039173483
aF0.002457002457002457
asS'camera'
p271
(lp272
F0.00043047783039173483
aF0.000819000819000819
asS'wonderfully'
p273
(lp274
F0.0008609556607834697
aF0.0004095004095004095
asS'wondering'
p275
(lp276
F0.00043047783039173483
aF0.000819000819000819
asS'recommend'
p277
(lp278
F0.002582866982350409
aF0.000819000819000819
asS'proportions'
p279
(lp280
F0.00043047783039173483
aF0.000819000819000819
asS'more'
p281
(lp282
F0.00043047783039173483
aF0.0012285012285012285
asS'attractive'
p283
(lp284
F0.0008609556607834697
aF0.000819000819000819
asS'pretty'
p285
(lp286
F0.0038743004735256135
aF0.001638001638001638
asS'materiel'
p287
(lp288
F0.0008609556607834697
aF0.0004095004095004095
asS'under'
p289
(lp290
F0.00043047783039173483
aF0.000819000819000819
asS'impress'
p291
(lp292
F0.00043047783039173483
aF0.000819000819000819
asS'hurt'
p293
(lp294
F0.00043047783039173483
aF0.000819000819000819
asS'long'
p295
(lp296
F0.0008609556607834697
aF0.0020475020475020475
asS'stick'
p297
(lp298
F0.0008609556607834697
aF0.0004095004095004095
asS'excellent'
p299
(lp300
F0.005596211795092553
aF0.0004095004095004095
asS'baby'
p301
(lp302
F0.0008609556607834697
aF0.0004095004095004095
asS'ok'
p303
(lp304
F0.0017219113215669393
aF0.002457002457002457
asS'hole'
p305
(lp306
F0.00043047783039173483
aF0.000819000819000819
asS'aligned'
p307
(lp308
F0.00043047783039173483
aF0.000819000819000819
asS'outdated'
p309
(lp310
F0.00043047783039173483
aF0.001638001638001638
asS'must'
p311
(lp312
F0.002152389151958674
aF0.0004095004095004095
asS'customer'
p313
(lp314
F0.00043047783039173483
aF0.001638001638001638
asS'fooling'
p315
(lp316
F0.00043047783039173483
aF0.000819000819000819
asS'word'
p317
(lp318
F0.0008609556607834697
aF0.0004095004095004095
asS'language'
p319
(lp320
F0.0008609556607834697
aF0.0004095004095004095
asS'science'
p321
(lp322
F0.00043047783039173483
aF0.000819000819000819
asS'getting'
p323
(lp324
F0.00043047783039173483
aF0.000819000819000819
asS'sucks'
p325
(lp326
F0.00043047783039173483
aF0.001638001638001638
asS'worn'
p327
(lp328
F0.0012914334911752045
aF0.0004095004095004095
asS'worth'
p329
(lp330
F0.005165733964700818
aF0.001638001638001638
asS'horseshit'
p331
(lp332
F0.00043047783039173483
aF0.000819000819000819
asS'archer'
p333
(lp334
F0.00043047783039173483
aF0.000819000819000819
asS'thin'
p335
(lp336
F0.00043047783039173483
aF0.001638001638001638
asS'meet'
p337
(lp338
F0.00043047783039173483
aF0.000819000819000819
asS'beautiful'
p339
(lp340
F0.0034438226431338786
aF0.000819000819000819
asS'claim'
p341
(lp342
F0.00043047783039173483
aF0.000819000819000819
asS'crazy'
p343
(lp344
F0.00043047783039173483
aF0.000819000819000819
asS'bent'
p345
(lp346
F0.00043047783039173483
aF0.000819000819000819
asS'figure'
p347
(lp348
F0.00043047783039173483
aF0.0012285012285012285
asS'lock'
p349
(lp350
F0.00043047783039173483
aF0.000819000819000819
asS'awesome'
p351
(lp352
F0.006026689625484288
aF0.000819000819000819
asS'lightweight'
p353
(lp354
F0.0012914334911752045
aF0.0004095004095004095
asS'terrible'
p355
(lp356
F0.00043047783039173483
aF0.0020475020475020475
asS'high'
p357
(lp358
F0.00043047783039173483
aF0.0028665028665028664
asS'slit'
p359
(lp360
F0.00043047783039173483
aF0.000819000819000819
asS'minimum'
p361
(lp362
F0.00043047783039173483
aF0.000819000819000819
asS'something'
p363
(lp364
F0.0008609556607834697
aF0.000819000819000819
asS'purchased'
p365
(lp366
F0.0008609556607834697
aF0.0012285012285012285
asS'dignity'
p367
(lp368
F0.0008609556607834697
aF0.0004095004095004095
asS'every'
p369
(lp370
F0.0008609556607834697
aF0.000819000819000819
asS'honest'
p371
(lp372
F0.0008609556607834697
aF0.0004095004095004095
asS'dress'
p373
(lp374
F0.005165733964700818
aF0.0012285012285012285
asS'worse'
p375
(lp376
F0.00043047783039173483
aF0.0012285012285012285
asS'sis'
p377
(lp378
F0.0008609556607834697
aF0.0004095004095004095
asS'huge'
p379
(lp380
F0.00043047783039173483
aF0.0020475020475020475
asS'needs'
p381
(lp382
F0.0008609556607834697
aF0.0004095004095004095
asS'end'
p383
(lp384
F0.00043047783039173483
aF0.000819000819000819
asS'winter'
p385
(lp386
F0.0008609556607834697
aF0.0004095004095004095
asS'awkward'
p387
(lp388
F0.00043047783039173483
aF0.000819000819000819
asS'lousy'
p389
(lp390
F0.00043047783039173483
aF0.000819000819000819
asS'clothing'
p391
(lp392
F0.0008609556607834697
aF0.0004095004095004095
asS'comfort'
p393
(lp394
F0.0012914334911752045
aF0.0004095004095004095
asS'feature'
p395
(lp396
F0.00043047783039173483
aF0.000819000819000819
asS'everyday'
p397
(lp398
F0.0008609556607834697
aF0.0004095004095004095
asS'write'
p399
(lp400
F0.00043047783039173483
aF0.0012285012285012285
asS'till'
p401
(lp402
F0.0008609556607834697
aF0.0004095004095004095
asS'amazing'
p403
(lp404
F0.0034438226431338786
aF0.000819000819000819
asS'nyc'
p405
(lp406
F0.0008609556607834697
aF0.0004095004095004095
asS'faulty'
p407
(lp408
F0.00043047783039173483
aF0.0020475020475020475
asS'hopeless'
p409
(lp410
F0.00043047783039173483
aF0.0012285012285012285
asS'upto'
p411
(lp412
F0.00043047783039173483
aF0.0020475020475020475
asS'badly'
p413
(lp414
F0.00043047783039173483
aF0.000819000819000819
asS'product'
p415
(lp416
F0.015927679724494187
aF0.01678951678951679
asS'designer'
p417
(lp418
F0.0012914334911752045
aF0.0004095004095004095
asS'frilly'
p419
(lp420
F0.0008609556607834697
aF0.0004095004095004095
asS'description'
p421
(lp422
F0.00043047783039173483
aF0.0012285012285012285
asS'transforming'
p423
(lp424
F0.0008609556607834697
aF0.0004095004095004095
asS'freezing'
p425
(lp426
F0.00043047783039173483
aF0.000819000819000819
asS'damaged'
p427
(lp428
F0.00043047783039173483
aF0.002457002457002457
asS'collection'
p429
(lp430
F0.003013344812742144
aF0.0004095004095004095
asS'stripes'
p431
(lp432
F0.00043047783039173483
aF0.0012285012285012285
asS'catalog'
p433
(lp434
F0.00043047783039173483
aF0.000819000819000819
asS'stars'
p435
(lp436
F0.0012914334911752045
aF0.000819000819000819
asS'designed'
p437
(lp438
F0.00043047783039173483
aF0.000819000819000819
asS'coming'
p439
(lp440
F0.00043047783039173483
aF0.000819000819000819
asS'date'
p441
(lp442
F0.0012914334911752045
aF0.0004095004095004095
asS'such'
p443
(lp444
F0.0008609556607834697
aF0.0004095004095004095
asS'truly'
p445
(lp446
F0.0012914334911752045
aF0.0004095004095004095
asS'shockingly'
p447
(lp448
F0.00043047783039173483
aF0.000819000819000819
asS'purchase'
p449
(lp450
F0.0012914334911752045
aF0.002457002457002457
asS'short'
p451
(lp452
F0.00043047783039173483
aF0.000819000819000819
asS'natural'
p453
(lp454
F0.0008609556607834697
aF0.0004095004095004095
asS'defective'
p455
(lp456
F0.00043047783039173483
aF0.001638001638001638
asS'effective'
p457
(lp458
F0.0008609556607834697
aF0.0004095004095004095
asS'maybe'
p459
(lp460
F0.00043047783039173483
aF0.001638001638001638
asS'optimised'
p461
(lp462
F0.00043047783039173483
aF0.000819000819000819
asS'life'
p463
(lp464
F0.0008609556607834697
aF0.0012285012285012285
asS'amazon'
p465
(lp466
F0.003013344812742144
aF0.000819000819000819
asS'coelho'
p467
(lp468
F0.0008609556607834697
aF0.0004095004095004095
asS'linen'
p469
(lp470
F0.0008609556607834697
aF0.0004095004095004095
asS'keeps'
p471
(lp472
F0.0008609556607834697
aF0.0004095004095004095
asS'necklace'
p473
(lp474
F0.00043047783039173483
aF0.000819000819000819
asS'worst'
p475
(lp476
F0.0008609556607834697
aF0.0036855036855036856
asS'lined'
p477
(lp478
F0.0008609556607834697
aF0.0004095004095004095
asS'playing'
p479
(lp480
F0.00043047783039173483
aF0.000819000819000819
asS'refund'
p481
(lp482
F0.00043047783039173483
aF0.000819000819000819
asS'cute'
p483
(lp484
F0.004304778303917348
aF0.000819000819000819
asS'shoes'
p485
(lp486
F0.004304778303917348
aF0.000819000819000819
asS'repair'
p487
(lp488
F0.00043047783039173483
aF0.0012285012285012285
asS'particularly'
p489
(lp490
F0.00043047783039173483
aF0.000819000819000819
asS'soon'
p491
(lp492
F0.0008609556607834697
aF0.0004095004095004095
asS'paper'
p493
(lp494
F0.0008609556607834697
aF0.0012285012285012285
asS'through'
p495
(lp496
F0.00043047783039173483
aF0.0012285012285012285
asS'looks'
p497
(lp498
F0.0017219113215669393
aF0.0045045045045045045
asS'keyboard'
p499
(lp500
F0.00043047783039173483
aF0.0012285012285012285
asS'mentioned'
p501
(lp502
F0.0008609556607834697
aF0.0020475020475020475
asS'hell'
p503
(lp504
F0.00043047783039173483
aF0.000819000819000819
asS'still'
p505
(lp506
F0.00043047783039173483
aF0.000819000819000819
asS'before'
p507
(lp508
F0.0008609556607834697
aF0.000819000819000819
asS'perfect'
p509
(lp510
F0.006887645286267757
aF0.000819000819000819
asS'messed'
p511
(lp512
F0.00043047783039173483
aF0.000819000819000819
asS'style'
p513
(lp514
F0.003013344812742144
aF0.0012285012285012285
asS'thrilling'
p515
(lp516
F0.0012914334911752045
aF0.0004095004095004095
asS'thank'
p517
(lp518
F0.0012914334911752045
aF0.0004095004095004095
asS'fit'
p519
(lp520
F0.008179078777442962
aF0.0045045045045045045
asS'interesting'
p521
(lp522
F0.0017219113215669393
aF0.0004095004095004095
asS'expectations'
p523
(lp524
F0.0008609556607834697
aF0.0004095004095004095
asS'actually'
p525
(lp526
F0.00043047783039173483
aF0.000819000819000819
asS'better'
p527
(lp528
F0.00043047783039173483
aF0.000819000819000819
asS'techie'
p529
(lp530
F0.0008609556607834697
aF0.0004095004095004095
asS'spellbound'
p531
(lp532
F0.0012914334911752045
aF0.0004095004095004095
asS'minute'
p533
(lp534
F0.0008609556607834697
aF0.0004095004095004095
asS'nifty'
p535
(lp536
F0.00043047783039173483
aF0.000819000819000819
asS'might'
p537
(lp538
F0.00043047783039173483
aF0.000819000819000819
asS'setting'
p539
(lp540
F0.00043047783039173483
aF0.000819000819000819
asS'non'
p541
(lp542
F0.00043047783039173483
aF0.000819000819000819
asS'good'
p543
(lp544
F0.02324580284115368
aF0.014742014742014743
asS'return'
p545
(lp546
F0.00043047783039173483
aF0.001638001638001638
asS'combination'
p547
(lp548
F0.0012914334911752045
aF0.0004095004095004095
asS'smash'
p549
(lp550
F0.00043047783039173483
aF0.000819000819000819
asS'matches'
p551
(lp552
F0.0008609556607834697
aF0.0004095004095004095
asS'material'
p553
(lp554
F0.0038743004735256135
aF0.0085995085995086
asS'legendary'
p555
(lp556
F0.0008609556607834697
aF0.0004095004095004095
asS'hands'
p557
(lp558
F0.00043047783039173483
aF0.000819000819000819
asS'not'
p559
(lp560
F0.0038743004735256135
aF0.03767403767403767
asS'handy'
p561
(lp562
F0.0008609556607834697
aF0.0004095004095004095
asS'nor'
p563
(lp564
F0.00043047783039173483
aF0.000819000819000819
asS'mystery'
p565
(lp566
F0.0008609556607834697
aF0.0004095004095004095
asS'easily'
p567
(lp568
F0.0012914334911752045
aF0.0004095004095004095
asS'name'
p569
(lp570
F0.00043047783039173483
aF0.000819000819000819
asS'pregnant'
p571
(lp572
F0.00043047783039173483
aF0.000819000819000819
asS'always'
p573
(lp574
F0.0012914334911752045
aF0.0004095004095004095
asS'reasonably'
p575
(lp576
F0.0008609556607834697
aF0.0004095004095004095
asS'drop'
p577
(lp578
F0.0012914334911752045
aF0.0004095004095004095
asS'moderate'
p579
(lp580
F0.0008609556607834697
aF0.0004095004095004095
asS'rocks'
p581
(lp582
F0.0012914334911752045
aF0.0004095004095004095
asS'unpredictable'
p583
(lp584
F0.0008609556607834697
aF0.0004095004095004095
asS'slide'
p585
(lp586
F0.0008609556607834697
aF0.0004095004095004095
asS'reasonable'
p587
(lp588
F0.002152389151958674
aF0.0004095004095004095
asS'each'
p589
(lp590
F0.0008609556607834697
aF0.0004095004095004095
asS'colleagues'
p591
(lp592
F0.0008609556607834697
aF0.0004095004095004095
asS'difficult'
p593
(lp594
F0.00043047783039173483
aF0.001638001638001638
asS'reminds'
p595
(lp596
F0.00043047783039173483
aF0.000819000819000819
asS'flipkart'
p597
(lp598
F0.0008609556607834697
aF0.003276003276003276
asS'em'
p599
(lp600
F0.0008609556607834697
aF0.0004095004095004095
asS'harm'
p601
(lp602
F0.00043047783039173483
aF0.000819000819000819
asS'everyone'
p603
(lp604
F0.0008609556607834697
aF0.0004095004095004095
asS'weight'
p605
(lp606
F0.0008609556607834697
aF0.000819000819000819
asS'series'
p607
(lp608
F0.0008609556607834697
aF0.000819000819000819
asS'hard'
p609
(lp610
F0.0008609556607834697
aF0.0004095004095004095
asS'used'
p611
(lp612
F0.0008609556607834697
aF0.0004095004095004095
asS'engaging'
p613
(lp614
F0.00043047783039173483
aF0.000819000819000819
asS'pirated'
p615
(lp616
F0.00043047783039173483
aF0.0012285012285012285
asS'books'
p617
(lp618
F0.0008609556607834697
aF0.000819000819000819
asS'expect'
p619
(lp620
F0.0008609556607834697
aF0.0004095004095004095
asS'okay'
p621
(lp622
F0.0008609556607834697
aF0.001638001638001638
asS'special'
p623
(lp624
F0.00043047783039173483
aF0.000819000819000819
asS'really'
p625
(lp626
F0.0034438226431338786
aF0.0020475020475020475
asS'large'
p627
(lp628
F0.00043047783039173483
aF0.0020475020475020475
asS'shown'
p629
(lp630
F0.0008609556607834697
aF0.000819000819000819
asS'gamers'
p631
(lp632
F0.00043047783039173483
aF0.000819000819000819
asS'enjoyable'
p633
(lp634
F0.0008609556607834697
aF0.0004095004095004095
asS'rs'
p635
(lp636
F0.0008609556607834697
aF0.0004095004095004095
asS'retuning'
p637
(lp638
F0.00043047783039173483
aF0.000819000819000819
asS'washed'
p639
(lp640
F0.00043047783039173483
aF0.000819000819000819
asS'factory'
p641
(lp642
F0.00043047783039173483
aF0.000819000819000819
asS'rd'
p643
(lp644
F0.00043047783039173483
aF0.000819000819000819
asS're'
p645
(lp646
F0.0012914334911752045
aF0.0004095004095004095
asS'adjust'
p647
(lp648
F0.0008609556607834697
aF0.0004095004095004095
asS'maserpiece'
p649
(lp650
F0.0008609556607834697
aF0.0004095004095004095
asS'print'
p651
(lp652
F0.0008609556607834697
aF0.0012285012285012285
asS'got'
p653
(lp654
F0.0012914334911752045
aF0.002457002457002457
asS'washes'
p655
(lp656
F0.0008609556607834697
aF0.0004095004095004095
asS'issue'
p657
(lp658
F0.0008609556607834697
aF0.0012285012285012285
asS'correct'
p659
(lp660
F0.0008609556607834697
aF0.0004095004095004095
asS'red'
p661
(lp662
F0.0008609556607834697
aF0.0004095004095004095
asS'mesmerised'
p663
(lp664
F0.0008609556607834697
aF0.0004095004095004095
asS'pathetic'
p665
(lp666
F0.00043047783039173483
aF0.001638001638001638
asS'given'
p667
(lp668
F0.0008609556607834697
aF0.0012285012285012285
asS'free'
p669
(lp670
F0.00043047783039173483
aF0.000819000819000819
asS'standard'
p671
(lp672
F0.00043047783039173483
aF0.0020475020475020475
asS'geared'
p673
(lp674
F0.00043047783039173483
aF0.000819000819000819
asS'quick'
p675
(lp676
F0.0017219113215669393
aF0.000819000819000819
asS'completely'
p677
(lp678
F0.0008609556607834697
aF0.001638001638001638
asS'masterpiece'
p679
(lp680
F0.0012914334911752045
aF0.000819000819000819
asS'unsightly'
p681
(lp682
F0.0008609556607834697
aF0.0004095004095004095
asS'complimenting'
p683
(lp684
F0.0008609556607834697
aF0.0004095004095004095
asS'put'
p685
(lp686
F0.0008609556607834697
aF0.0004095004095004095
asS'fragnance'
p687
(lp688
F0.00043047783039173483
aF0.0012285012285012285
asS'wanted'
p689
(lp690
F0.0008609556607834697
aF0.0004095004095004095
asS'software'
p691
(lp692
F0.00043047783039173483
aF0.000819000819000819
asS'couldn'
p693
(lp694
F0.00043047783039173483
aF0.000819000819000819
asS'thread'
p695
(lp696
F0.0008609556607834697
aF0.0004095004095004095
asS'backside'
p697
(lp698
F0.00043047783039173483
aF0.000819000819000819
asS'inexpensive'
p699
(lp700
F0.0008609556607834697
aF0.0004095004095004095
asS'days'
p701
(lp702
F0.00043047783039173483
aF0.000819000819000819
asS'times'
p703
(lp704
F0.0008609556607834697
aF0.0004095004095004095
asS'thing'
p705
(lp706
F0.0008609556607834697
aF0.0004095004095004095
asS'shipped'
p707
(lp708
F0.00043047783039173483
aF0.000819000819000819
asS'heck'
p709
(lp710
F0.0008609556607834697
aF0.0004095004095004095
asS'isn'
p711
(lp712
F0.00043047783039173483
aF0.000819000819000819
asS'swing'
p713
(lp714
F0.0008609556607834697
aF0.0004095004095004095
asS'broken'
p715
(lp716
F0.00043047783039173483
aF0.0012285012285012285
asS'purpose'
p717
(lp718
F0.0008609556607834697
aF0.0004095004095004095
asS'enjoy'
p719
(lp720
F0.0008609556607834697
aF0.0004095004095004095
asS'major'
p721
(lp722
F0.00043047783039173483
aF0.000819000819000819
asS'bling'
p723
(lp724
F0.0012914334911752045
aF0.0004095004095004095
asS'achingly'
p725
(lp726
F0.0008609556607834697
aF0.0004095004095004095
asS'grade'
p727
(lp728
F0.00043047783039173483
aF0.000819000819000819
asS'third'
p729
(lp730
F0.00043047783039173483
aF0.000819000819000819
asS'powerful'
p731
(lp732
F0.0008609556607834697
aF0.0004095004095004095
asS'owned'
p733
(lp734
F0.00043047783039173483
aF0.000819000819000819
asS'excately'
p735
(lp736
F0.0008609556607834697
aF0.0004095004095004095
asS'feet'
p737
(lp738
F0.0008609556607834697
aF0.000819000819000819
asS'fits'
p739
(lp740
F0.004735256134309083
aF0.0004095004095004095
asS'philosophical'
p741
(lp742
F0.00043047783039173483
aF0.000819000819000819
asS'improvements'
p743
(lp744
F0.00043047783039173483
aF0.000819000819000819
asS'done'
p745
(lp746
F0.0008609556607834697
aF0.0004095004095004095
asS'spots'
p747
(lp748
F0.00043047783039173483
aF0.000819000819000819
asS'another'
p749
(lp750
F0.0008609556607834697
aF0.0004095004095004095
asS'wasn'
p751
(lp752
F0.0008609556607834697
aF0.0004095004095004095
asS'carry'
p753
(lp754
F0.0008609556607834697
aF0.000819000819000819
asS'xs'
p755
(lp756
F0.0008609556607834697
aF0.0004095004095004095
asS'clarity'
p757
(lp758
F0.00043047783039173483
aF0.000819000819000819
asS'quality'
p759
(lp760
F0.008609556607834697
aF0.01678951678951679
asS'size'
p761
(lp762
F0.003013344812742144
aF0.0085995085995086
asS'story'
p763
(lp764
F0.002582866982350409
aF0.001638001638001638
asS'sandals'
p765
(lp766
F0.002152389151958674
aF0.000819000819000819
asS'checked'
p767
(lp768
F0.00043047783039173483
aF0.000819000819000819
asS'service'
p769
(lp770
F0.0012914334911752045
aF0.003276003276003276
asS'totally'
p771
(lp772
F0.002152389151958674
aF0.000819000819000819
asS'top'
p773
(lp774
F0.0017219113215669393
aF0.001638001638001638
asS'neck'
p775
(lp776
F0.0008609556607834697
aF0.0012285012285012285
asS'girls'
p777
(lp778
F0.00043047783039173483
aF0.000819000819000819
asS'comfy'
p779
(lp780
F0.0008609556607834697
aF0.0004095004095004095
asS'fiction'
p781
(lp782
F0.00043047783039173483
aF0.000819000819000819
asS'anyone'
p783
(lp784
F0.0008609556607834697
aF0.0004095004095004095
asS'needed'
p785
(lp786
F0.0008609556607834697
aF0.0004095004095004095
asS'flimsy'
p787
(lp788
F0.00043047783039173483
aF0.001638001638001638
asS'wonderful'
p789
(lp790
F0.0017219113215669393
aF0.0004095004095004095
asS'too'
p791
(lp792
F0.002152389151958674
aF0.011875511875511875
asS'time'
p793
(lp794
F0.003013344812742144
aF0.002457002457002457
asS'shoppers'
p795
(lp796
F0.0008609556607834697
aF0.0004095004095004095
asS'white'
p797
(lp798
F0.00043047783039173483
aF0.0012285012285012285
asS'legs'
p799
(lp800
F0.00043047783039173483
aF0.0012285012285012285
asS'store'
p801
(lp802
F0.00043047783039173483
aF0.000819000819000819
asS'low'
p803
(lp804
F0.002152389151958674
aF0.0020475020475020475
asS'murder'
p805
(lp806
F0.0008609556607834697
aF0.0004095004095004095
asS'scintillating'
p807
(lp808
F0.0008609556607834697
aF0.0004095004095004095
asS'courier'
p809
(lp810
F0.00043047783039173483
aF0.000819000819000819
asS'exactly'
p811
(lp812
F0.0008609556607834697
aF0.0004095004095004095
asS'took'
p813
(lp814
F0.0008609556607834697
aF0.0004095004095004095
asS'dupatta'
p815
(lp816
F0.00043047783039173483
aF0.000819000819000819
asS'slider'
p817
(lp818
F0.00043047783039173483
aF0.0012285012285012285
asS'push'
p819
(lp820
F0.00043047783039173483
aF0.000819000819000819
asS'discounted'
p821
(lp822
F0.00043047783039173483
aF0.000819000819000819
asS'copy'
p823
(lp824
F0.0008609556607834697
aF0.000819000819000819
asS'appreciated'
p825
(lp826
F0.0008609556607834697
aF0.0004095004095004095
asS'waist'
p827
(lp828
F0.00043047783039173483
aF0.0012285012285012285
asS'ipad'
p829
(lp830
F0.00043047783039173483
aF0.000819000819000819
asS'wide'
p831
(lp832
F0.00043047783039173483
aF0.000819000819000819
asS'kind'
p833
(lp834
F0.00043047783039173483
aF0.000819000819000819
asS'perfectly'
p835
(lp836
F0.0012914334911752045
aF0.0004095004095004095
asS'threads'
p837
(lp838
F0.00043047783039173483
aF0.000819000819000819
asS'unfortunately'
p839
(lp840
F0.00043047783039173483
aF0.000819000819000819
asS'bag'
p841
(lp842
F0.0017219113215669393
aF0.0012285012285012285
asS'boring'
p843
(lp844
F0.00043047783039173483
aF0.001638001638001638
asS'device'
p845
(lp846
F0.0008609556607834697
aF0.000819000819000819
asS'rate'
p847
(lp848
F0.0008609556607834697
aF0.000819000819000819
asS'matter'
p849
(lp850
F0.00043047783039173483
aF0.000819000819000819
asS'fabulous'
p851
(lp852
F0.0017219113215669393
aF0.0004095004095004095
asS'cuff'
p853
(lp854
F0.00043047783039173483
aF0.000819000819000819
asS'painful'
p855
(lp856
F0.00043047783039173483
aF0.000819000819000819
asS'loves'
p857
(lp858
F0.0008609556607834697
aF0.0004095004095004095
asS'light'
p859
(lp860
F0.003013344812742144
aF0.000819000819000819
asS'wastage'
p861
(lp862
F0.00043047783039173483
aF0.0012285012285012285
asS'feeling'
p863
(lp864
F0.00043047783039173483
aF0.000819000819000819
asS'brilliant'
p865
(lp866
F0.0012914334911752045
aF0.0004095004095004095
asS'outstanding'
p867
(lp868
F0.0012914334911752045
aF0.0004095004095004095
asS'grayish'
p869
(lp870
F0.00043047783039173483
aF0.000819000819000819
asS'upset'
p871
(lp872
F0.00043047783039173483
aF0.000819000819000819
asS'comfortable'
p873
(lp874
F0.006887645286267757
aF0.000819000819000819
asS'selling'
p875
(lp876
F0.00043047783039173483
aF0.0012285012285012285
asS'suspense'
p877
(lp878
F0.0008609556607834697
aF0.0004095004095004095
asS'need'
p879
(lp880
F0.0008609556607834697
aF0.000819000819000819
asS'seen'
p881
(lp882
F0.00043047783039173483
aF0.0012285012285012285
asS'cumbersome'
p883
(lp884
F0.00043047783039173483
aF0.000819000819000819
asS'border'
p885
(lp886
F0.0008609556607834697
aF0.0004095004095004095
asS'neckside'
p887
(lp888
F0.0008609556607834697
aF0.0004095004095004095
asS'genuine'
p889
(lp890
F0.0012914334911752045
aF0.000819000819000819
asS'built'
p891
(lp892
F0.00043047783039173483
aF0.000819000819000819
asS'thoroughly'
p893
(lp894
F0.0008609556607834697
aF0.0004095004095004095
asS'self'
p895
(lp896
F0.00043047783039173483
aF0.000819000819000819
asS'recommended'
p897
(lp898
F0.0008609556607834697
aF0.0012285012285012285
asS'materials'
p899
(lp900
F0.00043047783039173483
aF0.000819000819000819
asS'useless'
p901
(lp902
F0.00043047783039173483
aF0.000819000819000819
asS'online'
p903
(lp904
F0.0008609556607834697
aF0.001638001638001638
asS'aggravating'
p905
(lp906
F0.00043047783039173483
aF0.000819000819000819
asS'performance'
p907
(lp908
F0.0012914334911752045
aF0.000819000819000819
asS'clunky'
p909
(lp910
F0.00043047783039173483
aF0.000819000819000819
asS'defintely'
p911
(lp912
F0.00043047783039173483
aF0.000819000819000819
asS'play'
p913
(lp914
F0.00043047783039173483
aF0.000819000819000819
asS'printer'
p915
(lp916
F0.00043047783039173483
aF0.0012285012285012285
asS'multiple'
p917
(lp918
F0.0008609556607834697
aF0.0004095004095004095
asS'though'
p919
(lp920
F0.0008609556607834697
aF0.001638001638001638
asS'price'
p921
(lp922
F0.011192423590185106
aF0.005733005733005733
asS'classy'
p923
(lp924
F0.0008609556607834697
aF0.0004095004095004095
asS'chart'
p925
(lp926
F0.0008609556607834697
aF0.0012285012285012285
asS'falls'
p927
(lp928
F0.0008609556607834697
aF0.0004095004095004095
asS'regular'
p929
(lp930
F0.0008609556607834697
aF0.0004095004095004095
asS'skinner'
p931
(lp932
F0.00043047783039173483
aF0.000819000819000819
asS'nothing'
p933
(lp934
F0.00043047783039173483
aF0.001638001638001638
asS'future'
p935
(lp936
F0.0008609556607834697
aF0.0004095004095004095
asS'extremely'
p937
(lp938
F0.0008609556607834697
aF0.002457002457002457
asS'class'
p939
(lp940
F0.00043047783039173483
aF0.001638001638001638
asS'funnier'
p941
(lp942
F0.0008609556607834697
aF0.0004095004095004095
asS'beginners'
p943
(lp944
F0.00043047783039173483
aF0.0012285012285012285
asS'don'
p945
(lp946
F0.0008609556607834697
aF0.0045045045045045045
asS'misadvertised'
p947
(lp948
F0.00043047783039173483
aF0.000819000819000819
asS'sturdy'
p949
(lp950
F0.0012914334911752045
aF0.0004095004095004095
asS'mobile'
p951
(lp952
F0.0008609556607834697
aF0.0004095004095004095
asS'average'
p953
(lp954
F0.0017219113215669393
aF0.002457002457002457
asS'request'
p955
(lp956
F0.00043047783039173483
aF0.000819000819000819
asS'order'
p957
(lp958
F0.00043047783039173483
aF0.000819000819000819
asS'unreasonably'
p959
(lp960
F0.00043047783039173483
aF0.000819000819000819
asS'gorgeatte'
p961
(lp962
F0.00043047783039173483
aF0.000819000819000819
asS'professional'
p963
(lp964
F0.0008609556607834697
aF0.0004095004095004095
asS'entertaining'
p965
(lp966
F0.0008609556607834697
aF0.0004095004095004095
asS'notch'
p967
(lp968
F0.0008609556607834697
aF0.0004095004095004095
asS'away'
p969
(lp970
F0.00043047783039173483
aF0.000819000819000819
asS'came'
p971
(lp972
F0.00043047783039173483
aF0.0012285012285012285
asS'printheads'
p973
(lp974
F0.00043047783039173483
aF0.000819000819000819
asS'overpriced'
p975
(lp976
F0.00043047783039173483
aF0.000819000819000819
asS'gold'
p977
(lp978
F0.0008609556607834697
aF0.0004095004095004095
asS'summer'
p979
(lp980
F0.0008609556607834697
aF0.0004095004095004095
asS'please'
p981
(lp982
F0.00043047783039173483
aF0.001638001638001638
asS'system'
p983
(lp984
F0.00043047783039173483
aF0.0012285012285012285
asS'cheap'
p985
(lp986
F0.0008609556607834697
aF0.004914004914004914
asS'colors'
p987
(lp988
F0.0008609556607834697
aF0.0004095004095004095
asS'shoe'
p989
(lp990
F0.0008609556607834697
aF0.0004095004095004095
asS'utter'
p991
(lp992
F0.00043047783039173483
aF0.000819000819000819
asS'tend'
p993
(lp994
F0.00043047783039173483
aF0.000819000819000819
asS'fine'
p995
(lp996
F0.002152389151958674
aF0.0012285012285012285
asS'find'
p997
(lp998
F0.0008609556607834697
aF0.000819000819000819
asS'help'
p999
(lp1000
F0.00043047783039173483
aF0.0012285012285012285
asS'fibre'
p1001
(lp1002
F0.00043047783039173483
aF0.000819000819000819
asS'slow'
p1003
(lp1004
F0.00043047783039173483
aF0.0028665028665028664
asS'thriller'
p1005
(lp1006
F0.0008609556607834697
aF0.0004095004095004095
asS'treasure'
p1007
(lp1008
F0.0008609556607834697
aF0.0004095004095004095
asS'written'
p1009
(lp1010
F0.0008609556607834697
aF0.000819000819000819
asS'unhappy'
p1011
(lp1012
F0.00043047783039173483
aF0.0012285012285012285
asS'should'
p1013
(lp1014
F0.0008609556607834697
aF0.0004095004095004095
asS'won'
p1015
(lp1016
F0.0017219113215669393
aF0.0004095004095004095
asS'black'
p1017
(lp1018
F0.0008609556607834697
aF0.0004095004095004095
asS'buying'
p1019
(lp1020
F0.002152389151958674
aF0.0012285012285012285
asS'rich'
p1021
(lp1022
F0.0008609556607834697
aF0.0004095004095004095
asS'money'
p1023
(lp1024
F0.003013344812742144
aF0.004095004095004095
asS'stain'
p1025
(lp1026
F0.00043047783039173483
aF0.000819000819000819
asS'inferior'
p1027
(lp1028
F0.00043047783039173483
aF0.000819000819000819
asS'wearing'
p1029
(lp1030
F0.0008609556607834697
aF0.0004095004095004095
asS'handle'
p1031
(lp1032
F0.0008609556607834697
aF0.0004095004095004095
asS'above'
p1033
(lp1034
F0.0008609556607834697
aF0.0004095004095004095
asS'loved'
p1035
(lp1036
F0.006887645286267757
aF0.0004095004095004095
asS'overall'
p1037
(lp1038
F0.0012914334911752045
aF0.000819000819000819
asS'expectation'
p1039
(lp1040
F0.00043047783039173483
aF0.0012285012285012285
asS'satisfied'
p1041
(lp1042
F0.003013344812742144
aF0.0020475020475020475
asS'pocket'
p1043
(lp1044
F0.0008609556607834697
aF0.0004095004095004095
asS'feels'
p1045
(lp1046
F0.00043047783039173483
aF0.000819000819000819
asS'made'
p1047
(lp1048
F0.002152389151958674
aF0.001638001638001638
asS'perfection'
p1049
(lp1050
F0.0008609556607834697
aF0.0004095004095004095
asS'buyer'
p1051
(lp1052
F0.00043047783039173483
aF0.000819000819000819
asS'nasty'
p1053
(lp1054
F0.00043047783039173483
aF0.000819000819000819
asS'luks'
p1055
(lp1056
F0.0008609556607834697
aF0.0004095004095004095
asS'gray'
p1057
(lp1058
F0.00043047783039173483
aF0.000819000819000819
asS'runs'
p1059
(lp1060
F0.0012914334911752045
aF0.000819000819000819
asS'stitching'
p1061
(lp1062
F0.0008609556607834697
aF0.0012285012285012285
asS'lame'
p1063
(lp1064
F0.00043047783039173483
aF0.000819000819000819
asS'boarder'
p1065
(lp1066
F0.0008609556607834697
aF0.0004095004095004095
asS'twice'
p1067
(lp1068
F0.00043047783039173483
aF0.000819000819000819
asS'bad'
p1069
(lp1070
F0.002152389151958674
aF0.00819000819000819
asS'stuff'
p1071
(lp1072
F0.0008609556607834697
aF0.000819000819000819
asS'hype'
p1073
(lp1074
F0.00043047783039173483
aF0.000819000819000819
asS'tablets'
p1075
(lp1076
F0.0008609556607834697
aF0.0004095004095004095
asS'finishing'
p1077
(lp1078
F0.00043047783039173483
aF0.000819000819000819
asS'steal'
p1079
(lp1080
F0.0008609556607834697
aF0.0004095004095004095
asS'thumbs'
p1081
(lp1082
F0.00043047783039173483
aF0.000819000819000819
asS'affordable'
p1083
(lp1084
F0.0012914334911752045
aF0.0004095004095004095
asS'set'
p1085
(lp1086
F0.0012914334911752045
aF0.000819000819000819
asS'art'
p1087
(lp1088
F0.0008609556607834697
aF0.0004095004095004095
asS'disaster'
p1089
(lp1090
F0.00043047783039173483
aF0.000819000819000819
asS'fascinating'
p1091
(lp1092
F0.0008609556607834697
aF0.0004095004095004095
asS'attached'
p1093
(lp1094
F0.0008609556607834697
aF0.0004095004095004095
asS'enjoyed'
p1095
(lp1096
F0.0008609556607834697
aF0.0004095004095004095
asS'edition'
p1097
(lp1098
F0.0008609556607834697
aF0.0004095004095004095
asS'dumb'
p1099
(lp1100
F0.00043047783039173483
aF0.000819000819000819
asS'racket'
p1101
(lp1102
F0.00043047783039173483
aF0.0012285012285012285
asS'smashes'
p1103
(lp1104
F0.00043047783039173483
aF0.000819000819000819
asS'unusably'
p1105
(lp1106
F0.00043047783039173483
aF0.000819000819000819
asS'best'
p1107
(lp1108
F0.0038743004735256135
aF0.000819000819000819
asS'pattern'
p1109
(lp1110
F0.0008609556607834697
aF0.0004095004095004095
asS'wow'
p1111
(lp1112
F0.0012914334911752045
aF0.000819000819000819
asS'definite'
p1113
(lp1114
F0.0008609556607834697
aF0.0004095004095004095
asS'artificial'
p1115
(lp1116
F0.00043047783039173483
aF0.000819000819000819
asS'superb'
p1117
(lp1118
F0.002152389151958674
aF0.0004095004095004095
asS'junkies'
p1119
(lp1120
F0.00043047783039173483
aF0.000819000819000819
asS'behind'
p1121
(lp1122
F0.00043047783039173483
aF0.000819000819000819
asS'r'
p1123
(lp1124
F0.0008609556607834697
aF0.0004095004095004095
asS'faile'
p1125
(lp1126
F0.00043047783039173483
aF0.000819000819000819
asS'embroidery'
p1127
(lp1128
F0.0008609556607834697
aF0.0004095004095004095
asS'horrible'
p1129
(lp1130
F0.00043047783039173483
aF0.002457002457002457
asS'reading'
p1131
(lp1132
F0.0008609556607834697
aF0.0004095004095004095
asS'bought'
p1133
(lp1134
F0.0012914334911752045
aF0.0004095004095004095
asS'available'
p1135
(lp1136
F0.0012914334911752045
aF0.000819000819000819
asS'loose'
p1137
(lp1138
F0.00043047783039173483
aF0.0012285012285012285
asS'wears'
p1139
(lp1140
F0.0012914334911752045
aF0.0004095004095004095
asS'missing'
p1141
(lp1142
F0.0008609556607834697
aF0.000819000819000819
asS'blaster'
p1143
(lp1144
F0.00043047783039173483
aF0.000819000819000819
asS'screen'
p1145
(lp1146
F0.00043047783039173483
aF0.000819000819000819
asS'were'
p1147
(lp1148
F0.00043047783039173483
aF0.002457002457002457
asS'job'
p1149
(lp1150
F0.0012914334911752045
aF0.0004095004095004095
asS'wear'
p1151
(lp1152
F0.002582866982350409
aF0.001638001638001638
asS'interface'
p1153
(lp1154
F0.00043047783039173483
aF0.000819000819000819
asS'fittings'
p1155
(lp1156
F0.0012914334911752045
aF0.0004095004095004095
asS'received'
p1157
(lp1158
F0.00043047783039173483
aF0.002457002457002457
asS'piece'
p1159
(lp1160
F0.00043047783039173483
aF0.0020475020475020475
asS'last'
p1161
(lp1162
F0.00043047783039173483
aF0.000819000819000819
asS'tablet'
p1163
(lp1164
F0.0034438226431338786
aF0.001638001638001638
asS'fault'
p1165
(lp1166
F0.00043047783039173483
aF0.000819000819000819
asS'heating'
p1167
(lp1168
F0.00043047783039173483
aF0.000819000819000819
asS'disappointment'
p1169
(lp1170
F0.00043047783039173483
aF0.000819000819000819
asS'let'
p1171
(lp1172
F0.00043047783039173483
aF0.000819000819000819
asS'placebo'
p1173
(lp1174
F0.00043047783039173483
aF0.000819000819000819
asS'whole'
p1175
(lp1176
F0.0008609556607834697
aF0.000819000819000819
asS'comes'
p1177
(lp1178
F0.00043047783039173483
aF0.0012285012285012285
asS'load'
p1179
(lp1180
F0.00043047783039173483
aF0.000819000819000819
asS'gorgeous'
p1181
(lp1182
F0.0017219113215669393
aF0.0004095004095004095
asS'liked'
p1183
(lp1184
F0.0012914334911752045
aF0.0004095004095004095
asS'color'
p1185
(lp1186
F0.003013344812742144
aF0.002457002457002457
asS'sweet'
p1187
(lp1188
F0.0008609556607834697
aF0.0004095004095004095
asS'others'
p1189
(lp1190
F0.0008609556607834697
aF0.0004095004095004095
asS'period'
p1191
(lp1192
F0.0008609556607834697
aF0.0004095004095004095
asS'height'
p1193
(lp1194
F0.00043047783039173483
aF0.0012285012285012285
asS'improper'
p1195
(lp1196
F0.00043047783039173483
aF0.0012285012285012285
asS'simply'
p1197
(lp1198
F0.0017219113215669393
aF0.0004095004095004095
asS'likes'
p1199
(lp1200
F0.0008609556607834697
aF0.0004095004095004095
asS'enthralling'
p1201
(lp1202
F0.0008609556607834697
aF0.0004095004095004095
asS'table'
p1203
(lp1204
F0.002582866982350409
aF0.0028665028665028664
asS'narrowed'
p1205
(lp1206
F0.00043047783039173483
aF0.000819000819000819
asS'trust'
p1207
(lp1208
F0.00043047783039173483
aF0.000819000819000819
asS'expensive'
p1209
(lp1210
F0.0012914334911752045
aF0.000819000819000819
asS'late'
p1211
(lp1212
F0.00043047783039173483
aF0.000819000819000819
asS'strong'
p1213
(lp1214
F0.00043047783039173483
aF0.000819000819000819
asS'described'
p1215
(lp1216
F0.0012914334911752045
aF0.0004095004095004095
asS'raise'
p1217
(lp1218
F0.00043047783039173483
aF0.000819000819000819
asS'tremendous'
p1219
(lp1220
F0.0008609556607834697
aF0.0004095004095004095
asS'decent'
p1221
(lp1222
F0.002582866982350409
aF0.000819000819000819
asS'create'
p1223
(lp1224
F0.0008609556607834697
aF0.0004095004095004095
asS'due'
p1225
(lp1226
F0.00043047783039173483
aF0.000819000819000819
asS'been'
p1227
(lp1228
F0.0008609556607834697
aF0.0004095004095004095
asS'mark'
p1229
(lp1230
F0.00043047783039173483
aF0.002457002457002457
asS'quie'
p1231
(lp1232
F0.0008609556607834697
aF0.0004095004095004095
asS'much'
p1233
(lp1234
F0.002582866982350409
aF0.0004095004095004095
asS'dont'
p1235
(lp1236
F0.00043047783039173483
aF0.0020475020475020475
asS'wobbly'
p1237
(lp1238
F0.00043047783039173483
aF0.0012285012285012285
asS'basic'
p1239
(lp1240
F0.0012914334911752045
aF0.000819000819000819
asS'expected'
p1241
(lp1242
F0.002582866982350409
aF0.003276003276003276
asS'waste'
p1243
(lp1244
F0.00043047783039173483
aF0.004914004914004914
asS'spoiling'
p1245
(lp1246
F0.00043047783039173483
aF0.000819000819000819
asS'wants'
p1247
(lp1248
F0.00043047783039173483
aF0.000819000819000819
asS'shoulders'
p1249
(lp1250
F0.0008609556607834697
aF0.0012285012285012285
asS'both'
p1251
(lp1252
F0.0012914334911752045
aF0.0004095004095004095
asS'turned'
p1253
(lp1254
F0.00043047783039173483
aF0.000819000819000819
asS'body'
p1255
(lp1256
F0.00043047783039173483
aF0.000819000819000819
asS'priced'
p1257
(lp1258
F0.0008609556607834697
aF0.0004095004095004095
asS'sleeves'
p1259
(lp1260
F0.0008609556607834697
aF0.001638001638001638
asS'personally'
p1261
(lp1262
F0.0012914334911752045
aF0.0004095004095004095
asS'worked'
p1263
(lp1264
F0.0008609556607834697
aF0.0004095004095004095
asS'sad'
p1265
(lp1266
F0.0008609556607834697
aF0.0004095004095004095
asS'novel'
p1267
(lp1268
F0.0012914334911752045
aF0.000819000819000819
asS'straight'
p1269
(lp1270
F0.00043047783039173483
aF0.000819000819000819
asS'appearance'
p1271
(lp1272
F0.00043047783039173483
aF0.000819000819000819
asS'budget'
p1273
(lp1274
F0.0008609556607834697
aF0.0004095004095004095
asS'value'
p1275
(lp1276
F0.0017219113215669393
aF0.0004095004095004095
asS'healthy'
p1277
(lp1278
F0.0008609556607834697
aF0.0004095004095004095
asS'while'
p1279
(lp1280
F0.00043047783039173483
aF0.000819000819000819
asS'neat'
p1281
(lp1282
F0.0008609556607834697
aF0.0004095004095004095
asS'reliably'
p1283
(lp1284
F0.00043047783039173483
aF0.000819000819000819
asS'many'
p1285
(lp1286
F0.0008609556607834697
aF0.000819000819000819
asS'newspaper'
p1287
(lp1288
F0.00043047783039173483
aF0.000819000819000819
asS'advisable'
p1289
(lp1290
F0.00043047783039173483
aF0.000819000819000819
asS'coolest'
p1291
(lp1292
F0.0008609556607834697
aF0.0004095004095004095
asS'adjusts'
p1293
(lp1294
F0.0008609556607834697
aF0.0004095004095004095
asS'costly'
p1295
(lp1296
F0.00043047783039173483
aF0.000819000819000819
asS'hoping'
p1297
(lp1298
F0.00043047783039173483
aF0.000819000819000819
asS'almost'
p1299
(lp1300
F0.00043047783039173483
aF0.000819000819000819
asS'motivational'
p1301
(lp1302
F0.0008609556607834697
aF0.0004095004095004095
asS'ir'
p1303
(lp1304
F0.00043047783039173483
aF0.000819000819000819
asS'canon'
p1305
(lp1306
F0.00043047783039173483
aF0.000819000819000819
asS'disappointing'
p1307
(lp1308
F0.00043047783039173483
aF0.001638001638001638
asS'cant'
p1309
(lp1310
F0.0008609556607834697
aF0.0004095004095004095
asS'beautifully'
p1311
(lp1312
F0.0012914334911752045
aF0.0004095004095004095
asS'turner'
p1313
(lp1314
F0.0012914334911752045
aF0.0004095004095004095
asS'saddening'
p1315
(lp1316
F0.00043047783039173483
aF0.000819000819000819
asS'funny'
p1317
(lp1318
F0.0012914334911752045
aF0.0004095004095004095
asS'different'
p1319
(lp1320
F0.0008609556607834697
aF0.0036855036855036856
asS'shirt'
p1321
(lp1322
F0.00043047783039173483
aF0.002457002457002457
asS'anymore'
p1323
(lp1324
F0.00043047783039173483
aF0.000819000819000819
asS'shiny'
p1325
(lp1326
F0.0008609556607834697
aF0.0004095004095004095
asS'suggest'
p1327
(lp1328
F0.00043047783039173483
aF0.000819000819000819
asS'make'
p1329
(lp1330
F0.0008609556607834697
aF0.0004095004095004095
asS'same'
p1331
(lp1332
F0.002152389151958674
aF0.000819000819000819
asS'varies'
p1333
(lp1334
F0.00043047783039173483
aF0.000819000819000819
asS'paulo'
p1335
(lp1336
F0.0008609556607834697
aF0.0004095004095004095
asS'amazingly'
p1337
(lp1338
F0.0008609556607834697
aF0.0004095004095004095
asS'complaints'
p1339
(lp1340
F0.0008609556607834697
aF0.0004095004095004095
asS'party'
p1341
(lp1342
F0.0008609556607834697
aF0.0004095004095004095
asS'flair'
p1343
(lp1344
F0.0008609556607834697
aF0.0004095004095004095
asS'higher'
p1345
(lp1346
F0.00043047783039173483
aF0.000819000819000819
asS'breakdown'
p1347
(lp1348
F0.00043047783039173483
aF0.000819000819000819
asS'meets'
p1349
(lp1350
F0.0008609556607834697
aF0.0004095004095004095
asS'finish'
p1351
(lp1352
F0.00043047783039173483
aF0.000819000819000819
asS'slightly'
p1353
(lp1354
F0.00043047783039173483
aF0.000819000819000819
asS'keys'
p1355
(lp1356
F0.00043047783039173483
aF0.000819000819000819
asS'fruit'
p1357
(lp1358
F0.00043047783039173483
aF0.000819000819000819
asS'arrived'
p1359
(lp1360
F0.0008609556607834697
aF0.0012285012285012285
asS'user'
p1361
(lp1362
F0.0017219113215669393
aF0.0004095004095004095
asS'opinion'
p1363
(lp1364
F0.00043047783039173483
aF0.000819000819000819
asS'robust'
p1365
(lp1366
F0.0008609556607834697
aF0.0004095004095004095
asS'terribly'
p1367
(lp1368
F0.00043047783039173483
aF0.000819000819000819
asS'wyswyg'
p1369
(lp1370
F0.0008609556607834697
aF0.0004095004095004095
asS'collar'
p1371
(lp1372
F0.00043047783039173483
aF0.000819000819000819
asS'tighter'
p1373
(lp1374
F0.00043047783039173483
aF0.000819000819000819
asS'safe'
p1375
(lp1376
F0.00043047783039173483
aF0.001638001638001638
asS'suitable'
p1377
(lp1378
F0.0008609556607834697
aF0.000819000819000819
asS'off'
p1379
(lp1380
F0.00043047783039173483
aF0.000819000819000819
asS'center'
p1381
(lp1382
F0.00043047783039173483
aF0.0012285012285012285
asS'fully'
p1383
(lp1384
F0.0017219113215669393
aF0.0004095004095004095
asS'colour'
p1385
(lp1386
F0.0017219113215669393
aF0.0020475020475020475
asS'no'
p1387
(lp1388
F0.0012914334911752045
aF0.004914004914004914
asS'spent'
p1389
(lp1390
F0.0008609556607834697
aF0.0004095004095004095
asS'options'
p1391
(lp1392
F0.0008609556607834697
aF0.0004095004095004095
asS'person'
p1393
(lp1394
F0.0008609556607834697
aF0.000819000819000819
asS'sheer'
p1395
(lp1396
F0.00043047783039173483
aF0.000819000819000819
asS'without'
p1397
(lp1398
F0.0008609556607834697
aF0.0004095004095004095
asS'bottle'
p1399
(lp1400
F0.00043047783039173483
aF0.000819000819000819
asS'convenient'
p1401
(lp1402
F0.0008609556607834697
aF0.0004095004095004095
asS'model'
p1403
(lp1404
F0.0008609556607834697
aF0.0012285012285012285
asS'thats'
p1405
(lp1406
F0.0008609556607834697
aF0.0004095004095004095
asS'left'
p1407
(lp1408
F0.00043047783039173483
aF0.000819000819000819
asS'cenizas'
p1409
(lp1410
F0.0008609556607834697
aF0.0004095004095004095
asS'abilities'
p1411
(lp1412
F0.00043047783039173483
aF0.000819000819000819
asS'less'
p1413
(lp1414
F0.0008609556607834697
aF0.0004095004095004095
asS'photo'
p1415
(lp1416
F0.0008609556607834697
aF0.0004095004095004095
asS'laptop'
p1417
(lp1418
F0.00043047783039173483
aF0.000819000819000819
asS'adjustments'
p1419
(lp1420
F0.0008609556607834697
aF0.0004095004095004095
asS'front'
p1421
(lp1422
F0.0008609556607834697
aF0.0004095004095004095
asS'shape'
p1423
(lp1424
F0.00043047783039173483
aF0.000819000819000819
asS'plagued'
p1425
(lp1426
F0.00043047783039173483
aF0.000819000819000819
asS'advertised'
p1427
(lp1428
F0.0008609556607834697
aF0.0004095004095004095
asS'touch'
p1429
(lp1430
F0.00043047783039173483
aF0.000819000819000819
asS'speed'
p1431
(lp1432
F0.00043047783039173483
aF0.0012285012285012285
asS'yet'
p1433
(lp1434
F0.0012914334911752045
aF0.0004095004095004095
asS'down'
p1435
(lp1436
F0.0012914334911752045
aF0.002457002457002457
asS'buyers'
p1437
(lp1438
F0.0008609556607834697
aF0.0004095004095004095
asS'cut'
p1439
(lp1440
F0.0008609556607834697
aF0.0020475020475020475
asS'lehenga'
p1441
(lp1442
F0.00043047783039173483
aF0.000819000819000819
asS'sheldon'
p1443
(lp1444
F0.0012914334911752045
aF0.0004095004095004095
asS'spellbinding'
p1445
(lp1446
F0.0008609556607834697
aF0.0004095004095004095
asS'hated'
p1447
(lp1448
F0.00043047783039173483
aF0.000819000819000819
asS'seems'
p1449
(lp1450
F0.00043047783039173483
aF0.0012285012285012285
asS'fitting'
p1451
(lp1452
F0.0012914334911752045
aF0.003276003276003276
asS'simple'
p1453
(lp1454
F0.0012914334911752045
aF0.0004095004095004095
asS'add'
p1455
(lp1456
F0.0008609556607834697
aF0.0004095004095004095
asS'book'
p1457
(lp1458
F0.0064571674558760225
aF0.003276003276003276
asS'bank'
p1459
(lp1460
F0.0008609556607834697
aF0.0004095004095004095
asS'easy'
p1461
(lp1462
F0.003013344812742144
aF0.0012285012285012285
asS'continuation'
p1463
(lp1464
F0.0008609556607834697
aF0.0004095004095004095
asS'wildcraft'
p1465
(lp1466
F0.00043047783039173483
aF0.000819000819000819
asS'gave'
p1467
(lp1468
F0.0008609556607834697
aF0.000819000819000819
asS'real'
p1469
(lp1470
F0.0008609556607834697
aF0.0004095004095004095
asS'around'
p1471
(lp1472
F0.00043047783039173483
aF0.0012285012285012285
asS'layering'
p1473
(lp1474
F0.0008609556607834697
aF0.0004095004095004095
asS'read'
p1475
(lp1476
F0.004304778303917348
aF0.0012285012285012285
asS'big'
p1477
(lp1478
F0.00043047783039173483
aF0.0020475020475020475
asS'couple'
p1479
(lp1480
F0.0008609556607834697
aF0.0004095004095004095
asS'unlimited'
p1481
(lp1482
F0.00043047783039173483
aF0.000819000819000819
asS'dark'
p1483
(lp1484
F0.00043047783039173483
aF0.0012285012285012285
asS'game'
p1485
(lp1486
F0.00043047783039173483
aF0.000819000819000819
asS'five'
p1487
(lp1488
F0.0008609556607834697
aF0.0004095004095004095
asS'bit'
p1489
(lp1490
F0.0012914334911752045
aF0.000819000819000819
asS'glitches'
p1491
(lp1492
F0.00043047783039173483
aF0.0012285012285012285
asS'disappointed'
p1493
(lp1494
F0.00043047783039173483
aF0.0045045045045045045
asS'apart'
p1495
(lp1496
F0.00043047783039173483
aF0.000819000819000819
asS'shoulder'
p1497
(lp1498
F0.0012914334911752045
aF0.0004095004095004095
asS'packaging'
p1499
(lp1500
F0.0008609556607834697
aF0.002457002457002457
asS'like'
p1501
(lp1502
F0.004304778303917348
aF0.004095004095004095
asS'lost'
p1503
(lp1504
F0.00043047783039173483
aF0.000819000819000819
asS'photographs'
p1505
(lp1506
F0.00043047783039173483
aF0.000819000819000819
asS'qualitative'
p1507
(lp1508
F0.0008609556607834697
aF0.0004095004095004095
asS'serves'
p1509
(lp1510
F0.0008609556607834697
aF0.0004095004095004095
asS'oddly'
p1511
(lp1512
F0.00043047783039173483
aF0.000819000819000819
asS'pleats'
p1513
(lp1514
F0.0008609556607834697
aF0.0004095004095004095
asS't'
p1515
(lp1516
F0.0034438226431338786
aF0.007780507780507781
asS'clutch'
p1517
(lp1518
F0.0008609556607834697
aF0.0004095004095004095
asS'stylish'
p1519
(lp1520
F0.002582866982350409
aF0.0004095004095004095
asS'works'
p1521
(lp1522
F0.002152389151958674
aF0.000819000819000819
asS'soft'
p1523
(lp1524
F0.003013344812742144
aF0.0004095004095004095
asS'page'
p1525
(lp1526
F0.0012914334911752045
aF0.0004095004095004095
asS'replacement'
p1527
(lp1528
F0.00043047783039173483
aF0.000819000819000819
asS'satisfactory'
p1529
(lp1530
F0.0008609556607834697
aF0.000819000819000819
asS'didn'
p1531
(lp1532
F0.00043047783039173483
aF0.000819000819000819
asS'old'
p1533
(lp1534
F0.00043047783039173483
aF0.000819000819000819
asS'shabby'
p1535
(lp1536
F0.0008609556607834697
aF0.0004095004095004095
asS'deal'
p1537
(lp1538
F0.0012914334911752045
aF0.0004095004095004095
asS'exposed'
p1539
(lp1540
F0.00043047783039173483
aF0.000819000819000819
asS've'
p1541
(lp1542
F0.00043047783039173483
aF0.000819000819000819
asS'lookwise'
p1543
(lp1544
F0.00043047783039173483
aF0.000819000819000819
asS'somehow'
p1545
(lp1546
F0.00043047783039173483
aF0.000819000819000819
asS'library'
p1547
(lp1548
F0.0008609556607834697
aF0.0004095004095004095
asS'towards'
p1549
(lp1550
F0.00043047783039173483
aF0.000819000819000819
asS'glove'
p1551
(lp1552
F0.0008609556607834697
aF0.0004095004095004095
asS'specified'
p1553
(lp1554
F0.0008609556607834697
aF0.0004095004095004095
asS'proper'
p1555
(lp1556
F0.0008609556607834697
aF0.000819000819000819
asS'repelling'
p1557
(lp1558
F0.00043047783039173483
aF0.000819000819000819
asS'bizarre'
p1559
(lp1560
F0.00043047783039173483
aF0.000819000819000819
asS'delivered'
p1561
(lp1562
F0.0017219113215669393
aF0.001638001638001638
asS'friend'
p1563
(lp1564
F0.0008609556607834697
aF0.0004095004095004095
asS'bottom'
p1565
(lp1566
F0.00043047783039173483
aF0.000819000819000819
asS'avoid'
p1567
(lp1568
F0.00043047783039173483
aF0.000819000819000819
asS'perfetly'
p1569
(lp1570
F0.0008609556607834697
aF0.0004095004095004095
asS'per'
p1571
(lp1572
F0.0008609556607834697
aF0.0012285012285012285
asS'seller'
p1573
(lp1574
F0.0008609556607834697
aF0.0004095004095004095
asS'wrong'
p1575
(lp1576
F0.00043047783039173483
aF0.000819000819000819
asS'everything'
p1577
(lp1578
F0.002152389151958674
aF0.000819000819000819
asS'epic'
p1579
(lp1580
F0.0012914334911752045
aF0.0004095004095004095
asS'adorable'
p1581
(lp1582
F0.0008609556607834697
aF0.0004095004095004095
asS'blurry'
p1583
(lp1584
F0.00043047783039173483
aF0.000819000819000819
asS'overrated'
p1585
(lp1586
F0.00043047783039173483
aF0.0012285012285012285
asS'coller'
p1587
(lp1588
F0.0008609556607834697
aF0.0004095004095004095
asS'neatly'
p1589
(lp1590
F0.00043047783039173483
aF0.000819000819000819
asS'run'
p1591
(lp1592
F0.00043047783039173483
aF0.0012285012285012285
asS'power'
p1593
(lp1594
F0.0008609556607834697
aF0.0004095004095004095
asS'night'
p1595
(lp1596
F0.0008609556607834697
aF0.0004095004095004095
asS'iconic'
p1597
(lp1598
F0.0008609556607834697
aF0.0004095004095004095
asS'stellar'
p1599
(lp1600
F0.0008609556607834697
aF0.0004095004095004095
asS'restrictive'
p1601
(lp1602
F0.00043047783039173483
aF0.000819000819000819
asS'although'
p1603
(lp1604
F0.0008609556607834697
aF0.0004095004095004095
asS'keeper'
p1605
(lp1606
F0.0008609556607834697
aF0.0004095004095004095
asS'super'
p1607
(lp1608
F0.003013344812742144
aF0.0004095004095004095
asS'throw'
p1609
(lp1610
F0.00043047783039173483
aF0.000819000819000819
asS'hogwash'
p1611
(lp1612
F0.00043047783039173483
aF0.000819000819000819
asS'plastic'
p1613
(lp1614
F0.00043047783039173483
aF0.000819000819000819
asS'goods'
p1615
(lp1616
F0.00043047783039173483
aF0.000819000819000819
asS'actual'
p1617
(lp1618
F0.00043047783039173483
aF0.0012285012285012285
asS'wore'
p1619
(lp1620
F0.0008609556607834697
aF0.0004095004095004095
asS'chance'
p1621
(lp1622
F0.0008609556607834697
aF0.0004095004095004095
asS'shipping'
p1623
(lp1624
F0.00043047783039173483
aF0.000819000819000819
asS'advertized'
p1625
(lp1626
F0.00043047783039173483
aF0.000819000819000819
asS'misleading'
p1627
(lp1628
F0.00043047783039173483
aF0.0012285012285012285
asS'plus'
p1629
(lp1630
F0.0008609556607834697
aF0.0004095004095004095
asS'stand'
p1631
(lp1632
F0.0008609556607834697
aF0.0004095004095004095
asS'pockets'
p1633
(lp1634
F0.0008609556607834697
aF0.0004095004095004095
asS'wonders'
p1635
(lp1636
F0.00043047783039173483
aF0.000819000819000819
asS'backup'
p1637
(lp1638
F0.00043047783039173483
aF0.000819000819000819
asS'bleeds'
p1639
(lp1640
F0.00043047783039173483
aF0.000819000819000819
asS'printed'
p1641
(lp1642
F0.0008609556607834697
aF0.000819000819000819
asS'heavy'
p1643
(lp1644
F0.00043047783039173483
aF0.0012285012285012285
asS'raised'
p1645
(lp1646
F0.00043047783039173483
aF0.000819000819000819
asS'own'
p1647
(lp1648
F0.0008609556607834697
aF0.0004095004095004095
asS'garbage'
p1649
(lp1650
F0.00043047783039173483
aF0.0020475020475020475
asS'stitched'
p1651
(lp1652
F0.0008609556607834697
aF0.000819000819000819
asS'slippery'
p1653
(lp1654
F0.00043047783039173483
aF0.000819000819000819
asS'image'
p1655
(lp1656
F0.00043047783039173483
aF0.000819000819000819
asS'within'
p1657
(lp1658
F0.0008609556607834697
aF0.0004095004095004095
asS'child'
p1659
(lp1660
F0.0008609556607834697
aF0.0004095004095004095
asS'nonsense'
p1661
(lp1662
F0.00043047783039173483
aF0.0012285012285012285
asS'stop'
p1663
(lp1664
F0.0008609556607834697
aF0.000819000819000819
asS'pair'
p1665
(lp1666
F0.0008609556607834697
aF0.0004095004095004095
asS'right'
p1667
(lp1668
F0.0017219113215669393
aF0.0004095004095004095
asS'parties'
p1669
(lp1670
F0.0008609556607834697
aF0.0004095004095004095
asS'lesson'
p1671
(lp1672
F0.00043047783039173483
aF0.000819000819000819
asS'pointless'
p1673
(lp1674
F0.00043047783039173483
aF0.000819000819000819
asS'smells'
p1675
(lp1676
F0.00043047783039173483
aF0.000819000819000819
asS'racquet'
p1677
(lp1678
F0.0008609556607834697
aF0.0004095004095004095
asS'dermatologist'
p1679
(lp1680
F0.00043047783039173483
aF0.000819000819000819
asS'fabric'
p1681
(lp1682
F0.005165733964700818
aF0.001638001638001638
asS'transfer'
p1683
(lp1684
F0.00043047783039173483
aF0.000819000819000819
asS'people'
p1685
(lp1686
F0.0008609556607834697
aF0.000819000819000819
asS'apps'
p1687
(lp1688
F0.00043047783039173483
aF0.000819000819000819
asS'gift'
p1689
(lp1690
F0.0012914334911752045
aF0.0004095004095004095
asS'fast'
p1691
(lp1692
F0.002582866982350409
aF0.0004095004095004095
asS'why'
p1693
(lp1694
F0.00043047783039173483
aF0.000819000819000819
asS'absolutely'
p1695
(lp1696
F0.0008609556607834697
aF0.000819000819000819
asS'prettier'
p1697
(lp1698
F0.0008609556607834697
aF0.0004095004095004095
asS'lot'
p1699
(lp1700
F0.0008609556607834697
aF0.000819000819000819
asS'recommendable'
p1701
(lp1702
F0.0008609556607834697
aF0.0004095004095004095
asS'deteriorating'
p1703
(lp1704
F0.00043047783039173483
aF0.000819000819000819
asS'damn'
p1705
(lp1706
F0.0008609556607834697
aF0.000819000819000819
asS'wat'
p1707
(lp1708
F0.0012914334911752045
aF0.0004095004095004095
asS'cloth'
p1709
(lp1710
F0.0012914334911752045
aF0.002457002457002457
asS'happy'
p1711
(lp1712
F0.002582866982350409
aF0.0020475020475020475
asS'memory'
p1713
(lp1714
F0.0008609556607834697
aF0.000819000819000819
asS'buy'
p1715
(lp1716
F0.003013344812742144
aF0.009828009828009828
asS'battery'
p1717
(lp1718
F0.00043047783039173483
aF0.0012285012285012285
asS'complete'
p1719
(lp1720
F0.00043047783039173483
aF0.0012285012285012285
asS'form'
p1721
(lp1722
F0.00043047783039173483
aF0.000819000819000819
asS'enough'
p1723
(lp1724
F0.0012914334911752045
aF0.000819000819000819
asS'constantly'
p1725
(lp1726
F0.00043047783039173483
aF0.000819000819000819
asS'relaxed'
p1727
(lp1728
F0.0008609556607834697
aF0.0004095004095004095
asS'buggy'
p1729
(lp1730
F0.00043047783039173483
aF0.000819000819000819
asS'hv'
p1731
(lp1732
F0.0008609556607834697
aF0.0004095004095004095
asS'requested'
p1733
(lp1734
F0.00043047783039173483
aF0.000819000819000819
asS'glamour'
p1735
(lp1736
F0.0008609556607834697
aF0.0004095004095004095
asS'jus'
p1737
(lp1738
F0.0008609556607834697
aF0.0004095004095004095
asS'slivery'
p1739
(lp1740
F0.00043047783039173483
aF0.000819000819000819
asS'hopes'
p1741
(lp1742
F0.00043047783039173483
aF0.0012285012285012285
asS'remote'
p1743
(lp1744
F0.00043047783039173483
aF0.000819000819000819
asS'shrugs'
p1745
(lp1746
F0.00043047783039173483
aF0.000819000819000819
asS'bugs'
p1747
(lp1748
F0.00043047783039173483
aF0.000819000819000819
asS'true'
p1749
(lp1750
F0.0017219113215669393
aF0.0004095004095004095
asS'dull'
p1751
(lp1752
F0.00043047783039173483
aF0.002457002457002457
asS'matronly'
p1753
(lp1754
F0.00043047783039173483
aF0.000819000819000819
asS'lovely'
p1755
(lp1756
F0.002152389151958674
aF0.0004095004095004095
asS'wise'
p1757
(lp1758
F0.00043047783039173483
aF0.000819000819000819
asS'tab'
p1759
(lp1760
F0.00043047783039173483
aF0.000819000819000819
asS'j'
p1761
(lp1762
F0.0008609556607834697
aF0.0004095004095004095
asS'smooth'
p1763
(lp1764
F0.0012914334911752045
aF0.0004095004095004095
asS'devices'
p1765
(lp1766
F0.00043047783039173483
aF0.000819000819000819
asS'ur'
p1767
(lp1768
F0.00043047783039173483
aF0.000819000819000819
asS'below'
p1769
(lp1770
F0.00043047783039173483
aF0.0012285012285012285
asS'stories'
p1771
(lp1772
F0.0008609556607834697
aF0.0004095004095004095
asS'problem'
p1773
(lp1774
F0.0008609556607834697
aF0.0020475020475020475
asS'loving'
p1775
(lp1776
F0.0008609556607834697
aF0.0004095004095004095
asS'rickety'
p1777
(lp1778
F0.00043047783039173483
aF0.000819000819000819
asS'display'
p1779
(lp1780
F0.00043047783039173483
aF0.0012285012285012285
asS'ordered'
p1781
(lp1782
F0.0017219113215669393
aF0.0020475020475020475
asS'worthwhile'
p1783
(lp1784
F0.00043047783039173483
aF0.000819000819000819
asS'classic'
p1785
(lp1786
F0.0008609556607834697
aF0.0004095004095004095
asS'm'
p1787
(lp1788
F0.0008609556607834697
aF0.0004095004095004095
asS'pic'
p1789
(lp1790
F0.0012914334911752045
aF0.0012285012285012285
asS'unsafe'
p1791
(lp1792
F0.00043047783039173483
aF0.000819000819000819
asS'fuctional'
p1793
(lp1794
F0.0008609556607834697
aF0.0004095004095004095
asS'doesn'
p1795
(lp1796
F0.0008609556607834697
aF0.000819000819000819
asS'trendy'
p1797
(lp1798
F0.0008609556607834697
aF0.0004095004095004095
asS'sometime'
p1799
(lp1800
F0.00043047783039173483
aF0.000819000819000819
asS'disgusted'
p1801
(lp1802
F0.00043047783039173483
aF0.000819000819000819
asS'ink'
p1803
(lp1804
F0.00043047783039173483
aF0.000819000819000819
asS'crystals'
p1805
(lp1806
F0.0008609556607834697
aF0.0004095004095004095
asS'mediocre'
p1807
(lp1808
F0.00043047783039173483
aF0.000819000819000819
asS'face'
p1809
(lp1810
F0.0008609556607834697
aF0.0004095004095004095
asS'shit'
p1811
(lp1812
F0.00043047783039173483
aF0.000819000819000819
asS'cotton'
p1813
(lp1814
F0.00043047783039173483
aF0.000819000819000819
asS'incorrect'
p1815
(lp1816
F0.00043047783039173483
aF0.000819000819000819
asS'again'
p1817
(lp1818
F0.0012914334911752045
aF0.0004095004095004095
asS'compared'
p1819
(lp1820
F0.00043047783039173483
aF0.0012285012285012285
asS'incredible'
p1821
(lp1822
F0.0008609556607834697
aF0.0004095004095004095
asS'dressed'
p1823
(lp1824
F0.0008609556607834697
aF0.0004095004095004095
asS'thanks'
p1825
(lp1826
F0.002582866982350409
aF0.0004095004095004095
asS'occasional'
p1827
(lp1828
F0.00043047783039173483
aF0.000819000819000819
asS'tight'
p1829
(lp1830
F0.0012914334911752045
aF0.0012285012285012285
asS'build'
p1831
(lp1832
F0.00043047783039173483
aF0.000819000819000819
asS'definitely'
p1833
(lp1834
F0.00043047783039173483
aF0.000819000819000819
asS'normal'
p1835
(lp1836
F0.00043047783039173483
aF0.000819000819000819
asS'nt'
p1837
(lp1838
F0.00043047783039173483
aF0.000819000819000819
asS'nice'
p1839
(lp1840
F0.019801980198019802
aF0.0012285012285012285
asS'poor'
p1841
(lp1842
F0.00043047783039173483
aF0.0045045045045045045
asS'picture'
p1843
(lp1844
F0.0012914334911752045
aF0.0020475020475020475
asS'junk'
p1845
(lp1846
F0.00043047783039173483
aF0.0012285012285012285
asS'star'
p1847
(lp1848
F0.0008609556607834697
aF0.000819000819000819
asS'hey'
p1849
(lp1850
F0.0008609556607834697
aF0.0004095004095004095
asS'provided'
p1851
(lp1852
F0.00043047783039173483
aF0.000819000819000819
asS'favourite'
p1853
(lp1854
F0.0008609556607834697
aF0.0004095004095004095
asS'printing'
p1855
(lp1856
F0.00043047783039173483
aF0.0012285012285012285
asS'problems'
p1857
(lp1858
F0.00043047783039173483
aF0.000819000819000819
asS'anywhere'
p1859
(lp1860
F0.0008609556607834697
aF0.0004095004095004095
asS'dented'
p1861
(lp1862
F0.00043047783039173483
aF0.000819000819000819
asS'helpful'
p1863
(lp1864
F0.0008609556607834697
aF0.0004095004095004095
asS'alright'
p1865
(lp1866
F0.0008609556607834697
aF0.0004095004095004095
asS'drag'
p1867
(lp1868
F0.00043047783039173483
aF0.000819000819000819
asS'important'
p1869
(lp1870
F0.0008609556607834697
aF0.0004095004095004095
asS'smelling'
p1871
(lp1872
F0.00043047783039173483
aF0.000819000819000819
asS'else'
p1873
(lp1874
F0.00043047783039173483
aF0.000819000819000819
asS'sides'
p1875
(lp1876
F0.00043047783039173483
aF0.000819000819000819
asS'line'
p1877
(lp1878
F0.0017219113215669393
aF0.000819000819000819
asS'opened'
p1879
(lp1880
F0.0008609556607834697
aF0.0004095004095004095
asS'e'
p1881
(lp1882
F0.00043047783039173483
aF0.000819000819000819
asS'samsung'
p1883
(lp1884
F0.0017219113215669393
aF0.0012285012285012285
asS'age'
p1885
(lp1886
F0.00043047783039173483
aF0.000819000819000819
asS'daily'
p1887
(lp1888
F0.00043047783039173483
aF0.000819000819000819
asS'jacket'
p1889
(lp1890
F0.0012914334911752045
aF0.0004095004095004095
asS'petites'
p1891
(lp1892
F0.00043047783039173483
aF0.000819000819000819
asS'far'
p1893
(lp1894
F0.0012914334911752045
aF0.0004095004095004095
asS'original'
p1895
(lp1896
F0.0008609556607834697
aF0.0012285012285012285
as.