(dp0
S'amish'
p1
(lp2
F0.0007135212272565109
aF0.000333667000333667
asS'versatile'
p3
(lp4
F0.0010702818408847663
aF0.000333667000333667
asS'lace'
p5
(lp6
F0.00035676061362825543
aF0.000667334000667334
asS'quality poor'
p7
(lp8
F0.00035676061362825543
aF0.001001001001001001
asS'beware'
p9
(lp10
F0.00035676061362825543
aF0.001668335001668335
asS'excellent'
p11
(lp12
F0.004281127363539065
aF0.000333667000333667
asS'people'
p13
(lp14
F0.0007135212272565109
aF0.000667334000667334
asS'results'
p15
(lp16
F0.0007135212272565109
aF0.000333667000333667
asS'product not'
p17
(lp18
F0.00035676061362825543
aF0.001668335001668335
asS'enjoyable'
p19
(lp20
F0.0007135212272565109
aF0.000333667000333667
asS'size ordered'
p21
(lp22
F0.00035676061362825543
aF0.001001001001001001
asS'concept'
p23
(lp24
F0.00035676061362825543
aF0.000667334000667334
asS'skin'
p25
(lp26
F0.00035676061362825543
aF0.000667334000667334
asS'printheads'
p27
(lp28
F0.00035676061362825543
aF0.000667334000667334
asS'hate'
p29
(lp30
F0.00035676061362825543
aF0.001001001001001001
asS'children'
p31
(lp32
F0.00035676061362825543
aF0.000667334000667334
asS'issues'
p33
(lp34
F0.00035676061362825543
aF0.001001001001001001
asS'poorly'
p35
(lp36
F0.00035676061362825543
aF0.001001001001001001
asS'compact'
p37
(lp38
F0.0010702818408847663
aF0.000667334000667334
asS'rd'
p39
(lp40
F0.00035676061362825543
aF0.000667334000667334
asS'certainly'
p41
(lp42
F0.0007135212272565109
aF0.000333667000333667
asS'smily'
p43
(lp44
F0.0007135212272565109
aF0.000333667000333667
asS'lining'
p45
(lp46
F0.00035676061362825543
aF0.000667334000667334
asS'white'
p47
(lp48
F0.00035676061362825543
aF0.001001001001001001
asS'originality'
p49
(lp50
F0.00035676061362825543
aF0.000667334000667334
asS'charge'
p51
(lp52
F0.00035676061362825543
aF0.000667334000667334
asS'like picture'
p53
(lp54
F0.00035676061362825543
aF0.000667334000667334
asS'dissatisfied'
p55
(lp56
F0.00035676061362825543
aF0.000667334000667334
asS'th'
p57
(lp58
F0.00035676061362825543
aF0.000667334000667334
asS'stable'
p59
(lp60
F0.00035676061362825543
aF0.000667334000667334
asS'through'
p61
(lp62
F0.00035676061362825543
aF0.001001001001001001
asS'friendly'
p63
(lp64
F0.00035676061362825543
aF0.000333667000333667
asS'dress fits'
p65
(lp66
F0.0014270424545130217
aF0.000333667000333667
asS'lack'
p67
(lp68
F0.00035676061362825543
aF0.000667334000667334
asS'returned'
p69
(lp70
F0.00035676061362825543
aF0.001001001001001001
asS'returning'
p71
(lp72
F0.00035676061362825543
aF0.000667334000667334
asS'far'
p73
(lp74
F0.0010702818408847663
aF0.000333667000333667
asS'shoulder design'
p75
(lp76
F0.0010702818408847663
aF0.000333667000333667
asS'nice product'
p77
(lp78
F0.0021405636817695326
aF0.000333667000333667
asS'every'
p79
(lp80
F0.0007135212272565109
aF0.000667334000667334
asS'fabric good'
p81
(lp82
F0.0010702818408847663
aF0.000333667000333667
asS'decide'
p83
(lp84
F0.00035676061362825543
aF0.000667334000667334
asS'fall'
p85
(lp86
F0.0010702818408847663
aF0.000333667000333667
asS'awful'
p87
(lp88
F0.00035676061362825543
aF0.000667334000667334
asS'perfect fit'
p89
(lp90
F0.0007135212272565109
aF0.000333667000333667
asS'buy flipkart'
p91
(lp92
F0.00035676061362825543
aF0.001001001001001001
asS'nor'
p93
(lp94
F0.00035676061362825543
aF0.000667334000667334
asS'condition'
p95
(lp96
F0.0007135212272565109
aF0.000333667000333667
asS'cool'
p97
(lp98
F0.0010702818408847663
aF0.000333667000333667
asS'delivery'
p99
(lp100
F0.0014270424545130217
aF0.001334668001334668
asS'entire'
p101
(lp102
F0.00035676061362825543
aF0.000667334000667334
asS'moderate'
p103
(lp104
F0.0007135212272565109
aF0.000333667000333667
asS'impressive'
p105
(lp106
F0.0010702818408847663
aF0.000667334000667334
asS'did'
p107
(lp108
F0.00035676061362825543
aF0.000667334000667334
asS'die'
p109
(lp110
F0.0007135212272565109
aF0.000333667000333667
asS'button'
p111
(lp112
F0.00035676061362825543
aF0.001334668001334668
asS'fragile'
p113
(lp114
F0.00035676061362825543
aF0.000667334000667334
asS'large'
p115
(lp116
F0.00035676061362825543
aF0.000333667000333667
asS'item'
p117
(lp118
F0.00035676061362825543
aF0.001668335001668335
asS'adjust'
p119
(lp120
F0.0007135212272565109
aF0.000333667000333667
asS'great book'
p121
(lp122
F0.0010702818408847663
aF0.000333667000333667
asS'warranties'
p123
(lp124
F0.00035676061362825543
aF0.000667334000667334
asS'quick'
p125
(lp126
F0.0007135212272565109
aF0.000667334000667334
asS'dip'
p127
(lp128
F0.00035676061362825543
aF0.000667334000667334
asS'straight'
p129
(lp130
F0.00035676061362825543
aF0.000667334000667334
asS'clothes'
p131
(lp132
F0.0007135212272565109
aF0.000667334000667334
asS'enjoy'
p133
(lp134
F0.0007135212272565109
aF0.000333667000333667
asS'smaller'
p135
(lp136
F0.00035676061362825543
aF0.000333667000333667
asS'says'
p137
(lp138
F0.00035676061362825543
aF0.000667334000667334
asS'regret'
p139
(lp140
F0.0007135212272565109
aF0.000333667000333667
asS'drop shoulder'
p141
(lp142
F0.0010702818408847663
aF0.000333667000333667
asS'obsolete'
p143
(lp144
F0.00035676061362825543
aF0.000667334000667334
asS'boots'
p145
(lp146
F0.0007135212272565109
aF0.000333667000333667
asS'elegant'
p147
(lp148
F0.0014270424545130217
aF0.000333667000333667
asS'rate'
p149
(lp150
F0.00035676061362825543
aF0.000667334000667334
asS'fabulous'
p151
(lp152
F0.0014270424545130217
aF0.000333667000333667
asS'design'
p153
(lp154
F0.0010702818408847663
aF0.001001001001001001
asS'shirts'
p155
(lp156
F0.0007135212272565109
aF0.000667334000667334
asS'utter'
p157
(lp158
F0.00035676061362825543
aF0.000667334000667334
asS'table arrived'
p159
(lp160
F0.00035676061362825543
aF0.001001001001001001
asS'odd'
p161
(lp162
F0.00035676061362825543
aF0.000667334000667334
asS'casual'
p163
(lp164
F0.0010702818408847663
aF0.000333667000333667
asS'transfer'
p165
(lp166
F0.00035676061362825543
aF0.000667334000667334
asS'material'
p167
(lp168
F0.00035676061362825543
aF0.002669336002669336
asS'software'
p169
(lp170
F0.00035676061362825543
aF0.000667334000667334
asS'stressful'
p171
(lp172
F0.0007135212272565109
aF0.000333667000333667
asS'sub'
p173
(lp174
F0.00035676061362825543
aF0.000667334000667334
asS'great product'
p175
(lp176
F0.0014270424545130217
aF0.000333667000333667
asS'giving'
p177
(lp178
F0.00035676061362825543
aF0.000667334000667334
asS'fingers'
p179
(lp180
F0.00035676061362825543
aF0.000667334000667334
asS'find'
p181
(lp182
F0.0007135212272565109
aF0.000667334000667334
asS'anywhere'
p183
(lp184
F0.0007135212272565109
aF0.000333667000333667
asS'not fit'
p185
(lp186
F0.00035676061362825543
aF0.001668335001668335
asS'above'
p187
(lp188
F0.0007135212272565109
aF0.000333667000333667
asS'new'
p189
(lp190
F0.00035676061362825543
aF0.000667334000667334
asS'ever'
p191
(lp192
F0.0017838030681412772
aF0.001668335001668335
asS'too small'
p193
(lp194
F0.00035676061362825543
aF0.001668335001668335
asS'body'
p195
(lp196
F0.00035676061362825543
aF0.000333667000333667
asS'nice design'
p197
(lp198
F0.0007135212272565109
aF0.000333667000333667
asS'full'
p199
(lp200
F0.0007135212272565109
aF0.000333667000333667
asS'very nice'
p201
(lp202
F0.0035676061362825543
aF0.000333667000333667
asS'leg'
p203
(lp204
F0.0007135212272565109
aF0.000333667000333667
asS'loose'
p205
(lp206
F0.00035676061362825543
aF0.001001001001001001
asS'piece junk'
p207
(lp208
F0.00035676061362825543
aF0.001001001001001001
asS'hours'
p209
(lp210
F0.00035676061362825543
aF0.000667334000667334
asS'china'
p211
(lp212
F0.00035676061362825543
aF0.000667334000667334
asS'others'
p213
(lp214
F0.0007135212272565109
aF0.000333667000333667
asS'fits material'
p215
(lp216
F0.0010702818408847663
aF0.000333667000333667
asS'quite'
p217
(lp218
F0.0007135212272565109
aF0.000333667000333667
asS'wait'
p219
(lp220
F0.0007135212272565109
aF0.000333667000333667
asS'box'
p221
(lp222
F0.0007135212272565109
aF0.000333667000333667
asS'stellar'
p223
(lp224
F0.0007135212272565109
aF0.000333667000333667
asS'great'
p225
(lp226
F0.006064930431680342
aF0.001001001001001001
asS'kids'
p227
(lp228
F0.0014270424545130217
aF0.001001001001001001
asS'daughter'
p229
(lp230
F0.0007135212272565109
aF0.000667334000667334
asS'colored'
p231
(lp232
F0.00035676061362825543
aF0.000667334000667334
asS'noticeable'
p233
(lp234
F0.0007135212272565109
aF0.000333667000333667
asS'jams'
p235
(lp236
F0.00035676061362825543
aF0.000667334000667334
asS'brilliant'
p237
(lp238
F0.0010702818408847663
aF0.000333667000333667
asS'adjusts'
p239
(lp240
F0.0007135212272565109
aF0.000333667000333667
asS'very happy'
p241
(lp242
F0.0014270424545130217
aF0.000333667000333667
asS'experience'
p243
(lp244
F0.0014270424545130217
aF0.000667334000667334
asS'not upto'
p245
(lp246
F0.00035676061362825543
aF0.001334668001334668
asS'bulges'
p247
(lp248
F0.0007135212272565109
aF0.000333667000333667
asS'reasonable price'
p249
(lp250
F0.0007135212272565109
aF0.000333667000333667
asS'products'
p251
(lp252
F0.0007135212272565109
aF0.001001001001001001
asS'skinner'
p253
(lp254
F0.00035676061362825543
aF0.000667334000667334
asS'suggestion'
p255
(lp256
F0.0007135212272565109
aF0.000333667000333667
asS'mindblowing'
p257
(lp258
F0.0010702818408847663
aF0.000333667000333667
asS'action'
p259
(lp260
F0.00035676061362825543
aF0.000667334000667334
asS'opinion'
p261
(lp262
F0.00035676061362825543
aF0.000667334000667334
asS'weird'
p263
(lp264
F0.00035676061362825543
aF0.000667334000667334
asS'narrow'
p265
(lp266
F0.0010702818408847663
aF0.000667334000667334
asS'makes'
p267
(lp268
F0.00035676061362825543
aF0.000667334000667334
asS'honor'
p269
(lp270
F0.00035676061362825543
aF0.000667334000667334
asS'plotted'
p271
(lp272
F0.0007135212272565109
aF0.000333667000333667
asS'golden'
p273
(lp274
F0.00035676061362825543
aF0.000333667000333667
asS'fantastic'
p275
(lp276
F0.0014270424545130217
aF0.000333667000333667
asS'love'
p277
(lp278
F0.004281127363539065
aF0.000333667000333667
asS'os'
p279
(lp280
F0.00035676061362825543
aF0.000667334000667334
asS'awear'
p281
(lp282
F0.00035676061362825543
aF0.000667334000667334
asS'app'
p283
(lp284
F0.00035676061362825543
aF0.000667334000667334
asS'please dont'
p285
(lp286
F0.00035676061362825543
aF0.000667334000667334
asS'marked'
p287
(lp288
F0.00035676061362825543
aF0.000667334000667334
asS'highly'
p289
(lp290
F0.0014270424545130217
aF0.000333667000333667
asS'brought'
p291
(lp292
F0.0007135212272565109
aF0.000333667000333667
asS'visible'
p293
(lp294
F0.0007135212272565109
aF0.000333667000333667
asS'write speed'
p295
(lp296
F0.00035676061362825543
aF0.001001001001001001
asS'moral'
p297
(lp298
F0.00035676061362825543
aF0.000667334000667334
asS'unhappy'
p299
(lp300
F0.00035676061362825543
aF0.001001001001001001
asS'motor'
p301
(lp302
F0.00035676061362825543
aF0.000667334000667334
asS'fake'
p303
(lp304
F0.00035676061362825543
aF0.001001001001001001
asS'very comfortable'
p305
(lp306
F0.0010702818408847663
aF0.000333667000333667
asS'total'
p307
(lp308
F0.00035676061362825543
aF0.001001001001001001
asS'kind'
p309
(lp310
F0.00035676061362825543
aF0.000667334000667334
asS'unit'
p311
(lp312
F0.0007135212272565109
aF0.000333667000333667
asS'narayan'
p313
(lp314
F0.0007135212272565109
aF0.000333667000333667
asS'crap'
p315
(lp316
F0.00035676061362825543
aF0.001668335001668335
asS'requested'
p317
(lp318
F0.00035676061362825543
aF0.000333667000333667
asS'waste time'
p319
(lp320
F0.00035676061362825543
aF0.001001001001001001
asS'positive'
p321
(lp322
F0.0007135212272565109
aF0.000333667000333667
asS'sweater'
p323
(lp324
F0.00035676061362825543
aF0.000667334000667334
asS'arms'
p325
(lp326
F0.00035676061362825543
aF0.001001001001001001
asS'washes'
p327
(lp328
F0.0007135212272565109
aF0.000333667000333667
asS'very made'
p329
(lp330
F0.0010702818408847663
aF0.000333667000333667
asS'duplicate'
p331
(lp332
F0.00035676061362825543
aF0.001001001001001001
asS'camera'
p333
(lp334
F0.00035676061362825543
aF0.000667334000667334
asS'wonderfully'
p335
(lp336
F0.0007135212272565109
aF0.000333667000333667
asS'material looks'
p337
(lp338
F0.00035676061362825543
aF0.001001001001001001
asS'wondering'
p339
(lp340
F0.00035676061362825543
aF0.000333667000333667
asS'gorgeous'
p341
(lp342
F0.0014270424545130217
aF0.000333667000333667
asS'proportions'
p343
(lp344
F0.00035676061362825543
aF0.000667334000667334
asS'loving'
p345
(lp346
F0.0007135212272565109
aF0.000333667000333667
asS'material nice'
p347
(lp348
F0.0010702818408847663
aF0.000333667000333667
asS'rich'
p349
(lp350
F0.0007135212272565109
aF0.000333667000333667
asS'materiel'
p351
(lp352
F0.0007135212272565109
aF0.000333667000333667
asS'pleased product'
p353
(lp354
F0.0010702818408847663
aF0.000333667000333667
asS'under'
p355
(lp356
F0.00035676061362825543
aF0.000667334000667334
asS'impress'
p357
(lp358
F0.00035676061362825543
aF0.000667334000667334
asS'great price'
p359
(lp360
F0.0014270424545130217
aF0.000333667000333667
asS'hurt'
p361
(lp362
F0.00035676061362825543
aF0.000667334000667334
asS'stick'
p363
(lp364
F0.0007135212272565109
aF0.000333667000333667
asS'dermatologist'
p365
(lp366
F0.00035676061362825543
aF0.000667334000667334
asS'baby'
p367
(lp368
F0.0007135212272565109
aF0.000333667000333667
asS'ok'
p369
(lp370
F0.0014270424545130217
aF0.002002002002002002
asS'hole'
p371
(lp372
F0.00035676061362825543
aF0.000667334000667334
asS'aligned'
p373
(lp374
F0.00035676061362825543
aF0.000667334000667334
asS'outdated'
p375
(lp376
F0.00035676061362825543
aF0.001001001001001001
asS'must'
p377
(lp378
F0.00035676061362825543
aF0.000333667000333667
asS'customer'
p379
(lp380
F0.00035676061362825543
aF0.000333667000333667
asS'fooling'
p381
(lp382
F0.00035676061362825543
aF0.000667334000667334
asS'word'
p383
(lp384
F0.0007135212272565109
aF0.000333667000333667
asS'thread'
p385
(lp386
F0.0007135212272565109
aF0.000333667000333667
asS'science'
p387
(lp388
F0.00035676061362825543
aF0.000667334000667334
asS'sucks'
p389
(lp390
F0.00035676061362825543
aF0.001334668001334668
asS'unfortunately'
p391
(lp392
F0.00035676061362825543
aF0.000333667000333667
asS'worth'
p393
(lp394
F0.0007135212272565109
aF0.000333667000333667
asS'quality not'
p395
(lp396
F0.00035676061362825543
aF0.001001001001001001
asS'horseshit'
p397
(lp398
F0.00035676061362825543
aF0.000667334000667334
asS'fit comfortable'
p399
(lp400
F0.0014270424545130217
aF0.000333667000333667
asS'archer'
p401
(lp402
F0.00035676061362825543
aF0.000667334000667334
asS'selfhelp'
p403
(lp404
F0.00035676061362825543
aF0.000667334000667334
asS'thin'
p405
(lp406
F0.00035676061362825543
aF0.001334668001334668
asS'meet'
p407
(lp408
F0.00035676061362825543
aF0.000667334000667334
asS'didnt'
p409
(lp410
F0.00035676061362825543
aF0.000667334000667334
asS'beautiful'
p411
(lp412
F0.0021405636817695326
aF0.000667334000667334
asS'claim'
p413
(lp414
F0.00035676061362825543
aF0.000667334000667334
asS'crazy'
p415
(lp416
F0.00035676061362825543
aF0.000667334000667334
asS'average product'
p417
(lp418
F0.00035676061362825543
aF0.001001001001001001
asS'bent'
p419
(lp420
F0.00035676061362825543
aF0.000667334000667334
asS'figure'
p421
(lp422
F0.00035676061362825543
aF0.001001001001001001
asS'waste money'
p423
(lp424
F0.00035676061362825543
aF0.002002002002002002
asS'material not'
p425
(lp426
F0.00035676061362825543
aF0.002002002002002002
asS'lock'
p427
(lp428
F0.00035676061362825543
aF0.000667334000667334
asS'awesome'
p429
(lp430
F0.00392436674991081
aF0.000667334000667334
asS'lightweight'
p431
(lp432
F0.0010702818408847663
aF0.000333667000333667
asS'terrible'
p433
(lp434
F0.00035676061362825543
aF0.000333667000333667
asS'high'
p435
(lp436
F0.00035676061362825543
aF0.001001001001001001
asS'slit'
p437
(lp438
F0.00035676061362825543
aF0.000667334000667334
asS'minimum'
p439
(lp440
F0.00035676061362825543
aF0.000667334000667334
asS'something'
p441
(lp442
F0.0007135212272565109
aF0.000667334000667334
asS'purchased'
p443
(lp444
F0.0007135212272565109
aF0.001001001001001001
asS'story'
p445
(lp446
F0.0021405636817695326
aF0.001334668001334668
asS'dress'
p447
(lp448
F0.0017838030681412772
aF0.001001001001001001
asS'simple'
p449
(lp450
F0.0010702818408847663
aF0.000333667000333667
asS'worse'
p451
(lp452
F0.00035676061362825543
aF0.001001001001001001
asS'sis'
p453
(lp454
F0.0007135212272565109
aF0.000333667000333667
asS'huge'
p455
(lp456
F0.00035676061362825543
aF0.001334668001334668
asS'needs'
p457
(lp458
F0.0007135212272565109
aF0.000333667000333667
asS'end'
p459
(lp460
F0.00035676061362825543
aF0.000667334000667334
asS'defective'
p461
(lp462
F0.00035676061362825543
aF0.001001001001001001
asS'lame'
p463
(lp464
F0.00035676061362825543
aF0.000667334000667334
asS'clothing'
p465
(lp466
F0.0007135212272565109
aF0.000333667000333667
asS'cut not'
p467
(lp468
F0.00035676061362825543
aF0.001001001001001001
asS'comfort'
p469
(lp470
F0.0010702818408847663
aF0.000333667000333667
asS'thumbs'
p471
(lp472
F0.00035676061362825543
aF0.000667334000667334
asS'feature'
p473
(lp474
F0.00035676061362825543
aF0.000667334000667334
asS'write'
p475
(lp476
F0.00035676061362825543
aF0.000333667000333667
asS'till'
p477
(lp478
F0.0007135212272565109
aF0.000333667000333667
asS'amazing'
p479
(lp480
F0.0024973242953977882
aF0.000667334000667334
asS'misleading'
p481
(lp482
F0.00035676061362825543
aF0.001001001001001001
asS'pair'
p483
(lp484
F0.0007135212272565109
aF0.000333667000333667
asS'size easy'
p485
(lp486
F0.0010702818408847663
aF0.000333667000333667
asS'nyc'
p487
(lp488
F0.0007135212272565109
aF0.000333667000333667
asS'faulty'
p489
(lp490
F0.00035676061362825543
aF0.001001001001001001
asS'upto'
p491
(lp492
F0.00035676061362825543
aF0.000333667000333667
asS'badly'
p493
(lp494
F0.00035676061362825543
aF0.000333667000333667
asS'product'
p495
(lp496
F0.003210845522654299
aF0.003670337003670337
asS'designer'
p497
(lp498
F0.00035676061362825543
aF0.000333667000333667
asS'frilly'
p499
(lp500
F0.0007135212272565109
aF0.000333667000333667
asS'description'
p501
(lp502
F0.00035676061362825543
aF0.001001001001001001
asS'overall'
p503
(lp504
F0.0010702818408847663
aF0.000333667000333667
asS'fallwinter'
p505
(lp506
F0.0007135212272565109
aF0.000333667000333667
asS'super cute'
p507
(lp508
F0.0014270424545130217
aF0.000333667000333667
asS'damaged'
p509
(lp510
F0.00035676061362825543
aF0.002002002002002002
asS'collection'
p511
(lp512
F0.0024973242953977882
aF0.000333667000333667
asS'disgusted'
p513
(lp514
F0.00035676061362825543
aF0.000667334000667334
asS'catalog'
p515
(lp516
F0.00035676061362825543
aF0.000667334000667334
asS'stars'
p517
(lp518
F0.0010702818408847663
aF0.000667334000667334
asS'designed'
p519
(lp520
F0.00035676061362825543
aF0.000667334000667334
asS'coming'
p521
(lp522
F0.00035676061362825543
aF0.000667334000667334
asS'fits'
p523
(lp524
F0.00035676061362825543
aF0.000333667000333667
asS'such'
p525
(lp526
F0.0007135212272565109
aF0.000333667000333667
asS'truly'
p527
(lp528
F0.0010702818408847663
aF0.000333667000333667
asS'shockingly'
p529
(lp530
F0.00035676061362825543
aF0.000667334000667334
asS'size chart'
p531
(lp532
F0.0007135212272565109
aF0.000667334000667334
asS'times'
p533
(lp534
F0.00035676061362825543
aF0.000333667000333667
asS'purchase'
p535
(lp536
F0.0010702818408847663
aF0.002002002002002002
asS'short'
p537
(lp538
F0.00035676061362825543
aF0.000667334000667334
asS'natural'
p539
(lp540
F0.0007135212272565109
aF0.000333667000333667
asS'awkward'
p541
(lp542
F0.00035676061362825543
aF0.000667334000667334
asS'four'
p543
(lp544
F0.0007135212272565109
aF0.000333667000333667
asS'material very'
p545
(lp546
F0.0014270424545130217
aF0.000333667000333667
asS'light'
p547
(lp548
F0.0021405636817695326
aF0.000333667000333667
asS'optimised'
p549
(lp550
F0.00035676061362825543
aF0.000667334000667334
asS'feels'
p551
(lp552
F0.00035676061362825543
aF0.000667334000667334
asS'not worth'
p553
(lp554
F0.00035676061362825543
aF0.000667334000667334
asS'ever read'
p555
(lp556
F0.00035676061362825543
aF0.001001001001001001
asS'coelho'
p557
(lp558
F0.0007135212272565109
aF0.000333667000333667
asS'linen'
p559
(lp560
F0.0007135212272565109
aF0.000333667000333667
asS'classy'
p561
(lp562
F0.0007135212272565109
aF0.000333667000333667
asS'necklace'
p563
(lp564
F0.00035676061362825543
aF0.000667334000667334
asS'putting'
p565
(lp566
F0.0007135212272565109
aF0.000333667000333667
asS'lined'
p567
(lp568
F0.0007135212272565109
aF0.000333667000333667
asS'order'
p569
(lp570
F0.00035676061362825543
aF0.000667334000667334
asS'refund'
p571
(lp572
F0.00035676061362825543
aF0.000667334000667334
asS'cute'
p573
(lp574
F0.0007135212272565109
aF0.000667334000667334
asS'help'
p575
(lp576
F0.00035676061362825543
aF0.000667334000667334
asS'repair'
p577
(lp578
F0.00035676061362825543
aF0.001001001001001001
asS'worth price'
p579
(lp580
F0.0010702818408847663
aF0.000333667000333667
asS'shoes price'
p581
(lp582
F0.0010702818408847663
aF0.000333667000333667
asS'satisfied'
p583
(lp584
F0.0021405636817695326
aF0.000333667000333667
asS'poor stitching'
p585
(lp586
F0.00035676061362825543
aF0.001001001001001001
asS'isnt'
p587
(lp588
F0.00035676061362825543
aF0.000333667000333667
asS'paper'
p589
(lp590
F0.0007135212272565109
aF0.000333667000333667
asS'tablets'
p591
(lp592
F0.0007135212272565109
aF0.000333667000333667
asS'looks'
p593
(lp594
F0.0010702818408847663
aF0.002335669002335669
asS'keyboard'
p595
(lp596
F0.00035676061362825543
aF0.001001001001001001
asS'mentioned'
p597
(lp598
F0.00035676061362825543
aF0.001001001001001001
asS'hell'
p599
(lp600
F0.00035676061362825543
aF0.000667334000667334
asS'still'
p601
(lp602
F0.00035676061362825543
aF0.000667334000667334
asS'sheldon rocks'
p603
(lp604
F0.0010702818408847663
aF0.000333667000333667
asS'before'
p605
(lp606
F0.0007135212272565109
aF0.000667334000667334
asS'perfect'
p607
(lp608
F0.003210845522654299
aF0.000667334000667334
asS'messed'
p609
(lp610
F0.00035676061362825543
aF0.000667334000667334
asS'style'
p611
(lp612
F0.0017838030681412772
aF0.001001001001001001
asS'fittings'
p613
(lp614
F0.0010702818408847663
aF0.000333667000333667
asS'thank'
p615
(lp616
F0.0010702818408847663
aF0.000333667000333667
asS'fit'
p617
(lp618
F0.0024973242953977882
aF0.001334668001334668
asS'dress comfortable'
p619
(lp620
F0.0010702818408847663
aF0.000333667000333667
asS'interesting'
p621
(lp622
F0.0007135212272565109
aF0.000333667000333667
asS'expectations'
p623
(lp624
F0.0007135212272565109
aF0.000333667000333667
asS'happy product'
p625
(lp626
F0.0010702818408847663
aF0.000333667000333667
asS'actually'
p627
(lp628
F0.00035676061362825543
aF0.000333667000333667
asS'better'
p629
(lp630
F0.00035676061362825543
aF0.000667334000667334
asS'techie'
p631
(lp632
F0.0007135212272565109
aF0.000333667000333667
asS'spellbound'
p633
(lp634
F0.0010702818408847663
aF0.000333667000333667
asS'minute'
p635
(lp636
F0.0007135212272565109
aF0.000333667000333667
asS'nifty'
p637
(lp638
F0.00035676061362825543
aF0.000667334000667334
asS'thanks amazon'
p639
(lp640
F0.0017838030681412772
aF0.000333667000333667
asS'standard size'
p641
(lp642
F0.00035676061362825543
aF0.001001001001001001
asS'might'
p643
(lp644
F0.00035676061362825543
aF0.000667334000667334
asS'non'
p645
(lp646
F0.00035676061362825543
aF0.000667334000667334
asS'good'
p647
(lp648
F0.0067784516589368534
aF0.002002002002002002
asS'return'
p649
(lp650
F0.00035676061362825543
aF0.000667334000667334
asS'combination'
p651
(lp652
F0.00035676061362825543
aF0.000333667000333667
asS'matches'
p653
(lp654
F0.0007135212272565109
aF0.000333667000333667
asS'true size'
p655
(lp656
F0.0010702818408847663
aF0.000333667000333667
asS'killer'
p657
(lp658
F0.00035676061362825543
aF0.000667334000667334
asS'too good'
p659
(lp660
F0.0007135212272565109
aF0.000333667000333667
asS'bad product'
p661
(lp662
F0.00035676061362825543
aF0.001001001001001001
asS'legendary'
p663
(lp664
F0.0007135212272565109
aF0.000333667000333667
asS'hands'
p665
(lp666
F0.00035676061362825543
aF0.000667334000667334
asS'front'
p667
(lp668
F0.0007135212272565109
aF0.000333667000333667
asS'handy'
p669
(lp670
F0.0007135212272565109
aF0.000333667000333667
asS'bank'
p671
(lp672
F0.0007135212272565109
aF0.000333667000333667
asS'mystery'
p673
(lp674
F0.0007135212272565109
aF0.000333667000333667
asS'easily'
p675
(lp676
F0.0010702818408847663
aF0.000333667000333667
asS'personally'
p677
(lp678
F0.0010702818408847663
aF0.000333667000333667
asS'name'
p679
(lp680
F0.00035676061362825543
aF0.000667334000667334
asS'pregnant'
p681
(lp682
F0.00035676061362825543
aF0.000667334000667334
asS'always'
p683
(lp684
F0.0007135212272565109
aF0.000333667000333667
asS'reasonably'
p685
(lp686
F0.0007135212272565109
aF0.000333667000333667
asS'drop'
p687
(lp688
F0.00035676061362825543
aF0.000333667000333667
asS'paper quality'
p689
(lp690
F0.00035676061362825543
aF0.001001001001001001
asS'rocks'
p691
(lp692
F0.00035676061362825543
aF0.000333667000333667
asS'unpredictable'
p693
(lp694
F0.0007135212272565109
aF0.000333667000333667
asS'slide'
p695
(lp696
F0.0007135212272565109
aF0.000333667000333667
asS'awesome fits'
p697
(lp698
F0.0010702818408847663
aF0.000333667000333667
asS'reasonable'
p699
(lp700
F0.0010702818408847663
aF0.000333667000333667
asS'each'
p701
(lp702
F0.0007135212272565109
aF0.000333667000333667
asS'higher'
p703
(lp704
F0.00035676061362825543
aF0.000667334000667334
asS'reminds'
p705
(lp706
F0.00035676061362825543
aF0.000667334000667334
asS'flair'
p707
(lp708
F0.0007135212272565109
aF0.000333667000333667
asS'em'
p709
(lp710
F0.0007135212272565109
aF0.000333667000333667
asS'recommend'
p711
(lp712
F0.0017838030681412772
aF0.000667334000667334
asS'harm'
p713
(lp714
F0.00035676061362825543
aF0.000667334000667334
asS'everyone'
p715
(lp716
F0.0007135212272565109
aF0.000333667000333667
asS'weight'
p717
(lp718
F0.00035676061362825543
aF0.000333667000333667
asS'color combination'
p719
(lp720
F0.0007135212272565109
aF0.000333667000333667
asS'series'
p721
(lp722
F0.0007135212272565109
aF0.000667334000667334
asS'hard'
p723
(lp724
F0.0007135212272565109
aF0.000333667000333667
asS'used'
p725
(lp726
F0.0007135212272565109
aF0.000333667000333667
asS'engaging'
p727
(lp728
F0.00035676061362825543
aF0.000667334000667334
asS'pirated'
p729
(lp730
F0.00035676061362825543
aF0.001001001001001001
asS'books'
p731
(lp732
F0.00035676061362825543
aF0.000333667000333667
asS'expect'
p733
(lp734
F0.0007135212272565109
aF0.000333667000333667
asS'runs true'
p735
(lp736
F0.0010702818408847663
aF0.000333667000333667
asS'okay'
p737
(lp738
F0.00035676061362825543
aF0.001334668001334668
asS'thing'
p739
(lp740
F0.00035676061362825543
aF0.000333667000333667
asS'lesson'
p741
(lp742
F0.00035676061362825543
aF0.000667334000667334
asS'special'
p743
(lp744
F0.00035676061362825543
aF0.000667334000667334
asS'really'
p745
(lp746
F0.0028540849090260435
aF0.001668335001668335
asS'try'
p747
(lp748
F0.0007135212272565109
aF0.000333667000333667
asS'shown'
p749
(lp750
F0.0007135212272565109
aF0.000667334000667334
asS'gamers'
p751
(lp752
F0.00035676061362825543
aF0.000667334000667334
asS'rs'
p753
(lp754
F0.0007135212272565109
aF0.000333667000333667
asS'retuning'
p755
(lp756
F0.00035676061362825543
aF0.000667334000667334
asS'useless'
p757
(lp758
F0.00035676061362825543
aF0.000667334000667334
asS'washed'
p759
(lp760
F0.00035676061362825543
aF0.000667334000667334
asS'factory'
p761
(lp762
F0.00035676061362825543
aF0.000667334000667334
asS'worth money'
p763
(lp764
F0.0010702818408847663
aF0.000333667000333667
asS'looking'
p765
(lp766
F0.0010702818408847663
aF0.000667334000667334
asS'engrossing'
p767
(lp768
F0.0007135212272565109
aF0.000333667000333667
asS'print'
p769
(lp770
F0.00035676061362825543
aF0.001001001001001001
asS'got'
p771
(lp772
F0.0010702818408847663
aF0.001668335001668335
asS'receiving'
p773
(lp774
F0.00035676061362825543
aF0.000667334000667334
asS'issue'
p775
(lp776
F0.0007135212272565109
aF0.001001001001001001
asS'correct'
p777
(lp778
F0.0007135212272565109
aF0.000333667000333667
asS'red'
p779
(lp780
F0.0007135212272565109
aF0.000333667000333667
asS'mesmerised'
p781
(lp782
F0.0007135212272565109
aF0.000333667000333667
asS'pathetic'
p783
(lp784
F0.00035676061362825543
aF0.001334668001334668
asS'written'
p785
(lp786
F0.0007135212272565109
aF0.000667334000667334
asS'good nice'
p787
(lp788
F0.00035676061362825543
aF0.000333667000333667
asS'little'
p789
(lp790
F0.0014270424545130217
aF0.001001001001001001
asS'free'
p791
(lp792
F0.00035676061362825543
aF0.000667334000667334
asS'like'
p793
(lp794
F0.0035676061362825543
aF0.002335669002335669
asS'geared'
p795
(lp796
F0.00035676061362825543
aF0.000667334000667334
asS'small'
p797
(lp798
F0.0007135212272565109
aF0.000333667000333667
asS'completely'
p799
(lp800
F0.0007135212272565109
aF0.000667334000667334
asS'masterpiece'
p801
(lp802
F0.0014270424545130217
aF0.000667334000667334
asS'surely'
p803
(lp804
F0.0007135212272565109
aF0.000333667000333667
asS'put'
p805
(lp806
F0.0007135212272565109
aF0.000333667000333667
asS'fit nice'
p807
(lp808
F0.0010702818408847663
aF0.000333667000333667
asS'fragnance'
p809
(lp810
F0.00035676061362825543
aF0.001001001001001001
asS'wanted'
p811
(lp812
F0.0007135212272565109
aF0.000333667000333667
asS'shot'
p813
(lp814
F0.00035676061362825543
aF0.000667334000667334
asS'additional'
p815
(lp816
F0.0007135212272565109
aF0.000667334000667334
asS'language'
p817
(lp818
F0.0007135212272565109
aF0.000333667000333667
asS'backside'
p819
(lp820
F0.00035676061362825543
aF0.000667334000667334
asS'made cute'
p821
(lp822
F0.0010702818408847663
aF0.000333667000333667
asS'inexpensive'
p823
(lp824
F0.0007135212272565109
aF0.000333667000333667
asS'days'
p825
(lp826
F0.00035676061362825543
aF0.000667334000667334
asS'honest'
p827
(lp828
F0.0007135212272565109
aF0.000333667000333667
asS'lousy'
p829
(lp830
F0.00035676061362825543
aF0.000667334000667334
asS'shipped'
p831
(lp832
F0.00035676061362825543
aF0.000667334000667334
asS'heck'
p833
(lp834
F0.0007135212272565109
aF0.000333667000333667
asS'must read'
p835
(lp836
F0.0010702818408847663
aF0.000333667000333667
asS'hopeless'
p837
(lp838
F0.00035676061362825543
aF0.001001001001001001
asS'swing'
p839
(lp840
F0.0007135212272565109
aF0.000333667000333667
asS'won'
p841
(lp842
F0.0007135212272565109
aF0.000333667000333667
asS'delivery very'
p843
(lp844
F0.0014270424545130217
aF0.000333667000333667
asS'good quality'
p845
(lp846
F0.0014270424545130217
aF0.001001001001001001
asS'user'
p847
(lp848
F0.0007135212272565109
aF0.000333667000333667
asS'guzzling'
p849
(lp850
F0.00035676061362825543
aF0.000667334000667334
asS'major'
p851
(lp852
F0.00035676061362825543
aF0.000667334000667334
asS'bling'
p853
(lp854
F0.0010702818408847663
aF0.000333667000333667
asS'dont'
p855
(lp856
F0.0007135212272565109
aF0.001001001001001001
asS'grade'
p857
(lp858
F0.00035676061362825543
aF0.000667334000667334
asS'third'
p859
(lp860
F0.00035676061362825543
aF0.000667334000667334
asS'powerful'
p861
(lp862
F0.0007135212272565109
aF0.000333667000333667
asS'owned'
p863
(lp864
F0.00035676061362825543
aF0.000667334000667334
asS'excately'
p865
(lp866
F0.0007135212272565109
aF0.000333667000333667
asS'feet'
p867
(lp868
F0.0007135212272565109
aF0.000667334000667334
asS'date'
p869
(lp870
F0.0010702818408847663
aF0.000333667000333667
asS'philosophical'
p871
(lp872
F0.00035676061362825543
aF0.000667334000667334
asS'improvements'
p873
(lp874
F0.00035676061362825543
aF0.000667334000667334
asS'done'
p875
(lp876
F0.0007135212272565109
aF0.000333667000333667
asS'long'
p877
(lp878
F0.00035676061362825543
aF0.001668335001668335
asS'another'
p879
(lp880
F0.0007135212272565109
aF0.000333667000333667
asS'carry'
p881
(lp882
F0.0007135212272565109
aF0.000667334000667334
asS'xs'
p883
(lp884
F0.0007135212272565109
aF0.000333667000333667
asS'terrible customer'
p885
(lp886
F0.00035676061362825543
aF0.001001001001001001
asS'clarity'
p887
(lp888
F0.00035676061362825543
aF0.000667334000667334
asS'quality'
p889
(lp890
F0.0024973242953977882
aF0.002669336002669336
asS'size'
p891
(lp892
F0.00035676061362825543
aF0.000667334000667334
asS'given'
p893
(lp894
F0.00035676061362825543
aF0.001001001001001001
asS'checked'
p895
(lp896
F0.00035676061362825543
aF0.000667334000667334
asS'service'
p897
(lp898
F0.0010702818408847663
aF0.001668335001668335
asS'very pretty'
p899
(lp900
F0.0010702818408847663
aF0.000333667000333667
asS'wyswyg'
p901
(lp902
F0.0007135212272565109
aF0.000333667000333667
asS'top'
p903
(lp904
F0.0014270424545130217
aF0.001334668001334668
asS'waist'
p905
(lp906
F0.00035676061362825543
aF0.000333667000333667
asS'girls'
p907
(lp908
F0.00035676061362825543
aF0.000667334000667334
asS'comfy'
p909
(lp910
F0.0007135212272565109
aF0.000333667000333667
asS'fiction'
p911
(lp912
F0.00035676061362825543
aF0.000667334000667334
asS'anyone'
p913
(lp914
F0.0007135212272565109
aF0.000333667000333667
asS'needed'
p915
(lp916
F0.0007135212272565109
aF0.000333667000333667
asS'flimsy'
p917
(lp918
F0.00035676061362825543
aF0.001334668001334668
asS'wonderful'
p919
(lp920
F0.0014270424545130217
aF0.000333667000333667
asS'too'
p921
(lp922
F0.0007135212272565109
aF0.002002002002002002
asS'time'
p923
(lp924
F0.0021405636817695326
aF0.000667334000667334
asS'shoppers'
p925
(lp926
F0.0007135212272565109
aF0.000333667000333667
asS'restrictive'
p927
(lp928
F0.00035676061362825543
aF0.000667334000667334
asS'legs'
p929
(lp930
F0.00035676061362825543
aF0.001001001001001001
asS'friend'
p931
(lp932
F0.0007135212272565109
aF0.000333667000333667
asS'prettier'
p933
(lp934
F0.0007135212272565109
aF0.000333667000333667
asS'cheap quality'
p935
(lp936
F0.00035676061362825543
aF0.001334668001334668
asS'murder'
p937
(lp938
F0.0007135212272565109
aF0.000333667000333667
asS'scintillating'
p939
(lp940
F0.0007135212272565109
aF0.000333667000333667
asS'courier'
p941
(lp942
F0.00035676061362825543
aF0.000667334000667334
asS'great tablet'
p943
(lp944
F0.0010702818408847663
aF0.000333667000333667
asS'exactly'
p945
(lp946
F0.0007135212272565109
aF0.000333667000333667
asS'table terrible'
p947
(lp948
F0.00035676061362825543
aF0.001001001001001001
asS'took'
p949
(lp950
F0.0007135212272565109
aF0.000333667000333667
asS'dupatta'
p951
(lp952
F0.00035676061362825543
aF0.000333667000333667
asS'slider'
p953
(lp954
F0.00035676061362825543
aF0.001001001001001001
asS'slowoutdated'
p955
(lp956
F0.00035676061362825543
aF0.000667334000667334
asS'duplicate product'
p957
(lp958
F0.00035676061362825543
aF0.001334668001334668
asS'off'
p959
(lp960
F0.00035676061362825543
aF0.000667334000667334
asS'copy'
p961
(lp962
F0.0007135212272565109
aF0.000667334000667334
asS'appreciated'
p963
(lp964
F0.0007135212272565109
aF0.000333667000333667
asS'good worth'
p965
(lp966
F0.0014270424545130217
aF0.000333667000333667
asS'neck'
p967
(lp968
F0.00035676061362825543
aF0.001001001001001001
asS'ipad'
p969
(lp970
F0.00035676061362825543
aF0.000667334000667334
asS'loved'
p971
(lp972
F0.004281127363539065
aF0.000333667000333667
asS'colleagues'
p973
(lp974
F0.0007135212272565109
aF0.000333667000333667
asS'perfectly'
p975
(lp976
F0.0010702818408847663
aF0.000333667000333667
asS'threads'
p977
(lp978
F0.00035676061362825543
aF0.000667334000667334
asS'effective'
p979
(lp980
F0.0007135212272565109
aF0.000333667000333667
asS'boring'
p981
(lp982
F0.00035676061362825543
aF0.001334668001334668
asS'second'
p983
(lp984
F0.0007135212272565109
aF0.000667334000667334
asS'good material'
p985
(lp986
F0.0007135212272565109
aF0.000667334000667334
asS'matter'
p987
(lp988
F0.00035676061362825543
aF0.000667334000667334
asS'small standard'
p989
(lp990
F0.00035676061362825543
aF0.001001001001001001
asS'cost'
p991
(lp992
F0.00035676061362825543
aF0.000333667000333667
asS'cuff'
p993
(lp994
F0.00035676061362825543
aF0.000667334000667334
asS'painful'
p995
(lp996
F0.00035676061362825543
aF0.000667334000667334
asS'loves'
p997
(lp998
F0.0007135212272565109
aF0.000333667000333667
asS'maybe'
p999
(lp1000
F0.00035676061362825543
aF0.001334668001334668
asS'wastage'
p1001
(lp1002
F0.00035676061362825543
aF0.000333667000333667
asS'feeling'
p1003
(lp1004
F0.00035676061362825543
aF0.000667334000667334
asS'outstanding'
p1005
(lp1006
F0.0010702818408847663
aF0.000333667000333667
asS'wasnt'
p1007
(lp1008
F0.0007135212272565109
aF0.000333667000333667
asS'grayish'
p1009
(lp1010
F0.00035676061362825543
aF0.000667334000667334
asS'comfortable'
p1011
(lp1012
F0.0017838030681412772
aF0.000667334000667334
asS'lifetransforming'
p1013
(lp1014
F0.0007135212272565109
aF0.000333667000333667
asS'selling'
p1015
(lp1016
F0.00035676061362825543
aF0.000667334000667334
asS'suspense'
p1017
(lp1018
F0.0007135212272565109
aF0.000333667000333667
asS'nice fitting'
p1019
(lp1020
F0.0007135212272565109
aF0.000667334000667334
asS'need'
p1021
(lp1022
F0.0007135212272565109
aF0.000667334000667334
asS'seen'
p1023
(lp1024
F0.00035676061362825543
aF0.001001001001001001
asS'cumbersome'
p1025
(lp1026
F0.00035676061362825543
aF0.000667334000667334
asS'border'
p1027
(lp1028
F0.00035676061362825543
aF0.000333667000333667
asS'worst'
p1029
(lp1030
F0.0007135212272565109
aF0.003003003003003003
asS'neckside'
p1031
(lp1032
F0.0007135212272565109
aF0.000333667000333667
asS'user friendly'
p1033
(lp1034
F0.0010702818408847663
aF0.000333667000333667
asS'genuine'
p1035
(lp1036
F0.0007135212272565109
aF0.000333667000333667
asS'built'
p1037
(lp1038
F0.00035676061362825543
aF0.000667334000667334
asS'convenient'
p1039
(lp1040
F0.0007135212272565109
aF0.000333667000333667
asS'fast delivery'
p1041
(lp1042
F0.0010702818408847663
aF0.000333667000333667
asS'works great'
p1043
(lp1044
F0.0014270424545130217
aF0.000333667000333667
asS'fitting'
p1045
(lp1046
F0.00035676061362825543
aF0.002002002002002002
asS'without'
p1047
(lp1048
F0.0007135212272565109
aF0.000333667000333667
asS'build'
p1049
(lp1050
F0.00035676061362825543
aF0.000667334000667334
asS'online'
p1051
(lp1052
F0.0007135212272565109
aF0.001334668001334668
asS'aggravating'
p1053
(lp1054
F0.00035676061362825543
aF0.000667334000667334
asS'performance'
p1055
(lp1056
F0.0010702818408847663
aF0.000667334000667334
asS'faulty product'
p1057
(lp1058
F0.00035676061362825543
aF0.001001001001001001
asS'poor quality'
p1059
(lp1060
F0.00035676061362825543
aF0.001001001001001001
asS'clunky'
p1061
(lp1062
F0.00035676061362825543
aF0.000667334000667334
asS'memory'
p1063
(lp1064
F0.0007135212272565109
aF0.000667334000667334
asS'play'
p1065
(lp1066
F0.00035676061362825543
aF0.000667334000667334
asS'motivational'
p1067
(lp1068
F0.0007135212272565109
aF0.000333667000333667
asS'multiple'
p1069
(lp1070
F0.0007135212272565109
aF0.000333667000333667
asS'normal'
p1071
(lp1072
F0.00035676061362825543
aF0.000667334000667334
asS'not buy'
p1073
(lp1074
F0.00035676061362825543
aF0.002002002002002002
asS'price'
p1075
(lp1076
F0.0035676061362825543
aF0.002669336002669336
asS'keeps'
p1077
(lp1078
F0.0007135212272565109
aF0.000333667000333667
asS'chart'
p1079
(lp1080
F0.00035676061362825543
aF0.000333667000333667
asS'falls'
p1081
(lp1082
F0.0007135212272565109
aF0.000333667000333667
asS'regular'
p1083
(lp1084
F0.0007135212272565109
aF0.000333667000333667
asS'plus'
p1085
(lp1086
F0.0007135212272565109
aF0.000333667000333667
asS'device'
p1087
(lp1088
F0.0007135212272565109
aF0.000667334000667334
asS'good price'
p1089
(lp1090
F0.0010702818408847663
aF0.000333667000333667
asS'extremely'
p1091
(lp1092
F0.0007135212272565109
aF0.002002002002002002
asS'class'
p1093
(lp1094
F0.00035676061362825543
aF0.001334668001334668
asS'funnier'
p1095
(lp1096
F0.0007135212272565109
aF0.000333667000333667
asS'beginners'
p1097
(lp1098
F0.00035676061362825543
aF0.001001001001001001
asS'misadvertised'
p1099
(lp1100
F0.00035676061362825543
aF0.000667334000667334
asS'jus'
p1101
(lp1102
F0.0007135212272565109
aF0.000333667000333667
asS'mobile'
p1103
(lp1104
F0.0007135212272565109
aF0.000333667000333667
asS'average'
p1105
(lp1106
F0.0014270424545130217
aF0.001334668001334668
asS'not same'
p1107
(lp1108
F0.0007135212272565109
aF0.000667334000667334
asS'request'
p1109
(lp1110
F0.00035676061362825543
aF0.000667334000667334
asS'face'
p1111
(lp1112
F0.0007135212272565109
aF0.000333667000333667
asS'unreasonably'
p1113
(lp1114
F0.00035676061362825543
aF0.000667334000667334
asS'definitely'
p1115
(lp1116
F0.00035676061362825543
aF0.000667334000667334
asS'achingly'
p1117
(lp1118
F0.0007135212272565109
aF0.000333667000333667
asS'mentioned size'
p1119
(lp1120
F0.0007135212272565109
aF0.000667334000667334
asS'professional'
p1121
(lp1122
F0.0007135212272565109
aF0.000333667000333667
asS'entertaining'
p1123
(lp1124
F0.0007135212272565109
aF0.000333667000333667
asS'notch'
p1125
(lp1126
F0.0007135212272565109
aF0.000333667000333667
asS'wow'
p1127
(lp1128
F0.0007135212272565109
aF0.000667334000667334
asS'came'
p1129
(lp1130
F0.00035676061362825543
aF0.001001001001001001
asS'fit price'
p1131
(lp1132
F0.0007135212272565109
aF0.000667334000667334
asS'particularly'
p1133
(lp1134
F0.00035676061362825543
aF0.000667334000667334
asS'overpriced'
p1135
(lp1136
F0.00035676061362825543
aF0.000667334000667334
asS'gold'
p1137
(lp1138
F0.0007135212272565109
aF0.000333667000333667
asS'summer'
p1139
(lp1140
F0.0007135212272565109
aF0.000333667000333667
asS'please'
p1141
(lp1142
F0.00035676061362825543
aF0.000667334000667334
asS'system'
p1143
(lp1144
F0.00035676061362825543
aF0.001001001001001001
asS'cheap'
p1145
(lp1146
F0.00035676061362825543
aF0.002002002002002002
asS'colors'
p1147
(lp1148
F0.0007135212272565109
aF0.000333667000333667
asS'shoe'
p1149
(lp1150
F0.0007135212272565109
aF0.000333667000333667
asS'corner'
p1151
(lp1152
F0.00035676061362825543
aF0.001001001001001001
asS'tend'
p1153
(lp1154
F0.00035676061362825543
aF0.000667334000667334
asS'fine'
p1155
(lp1156
F0.0017838030681412772
aF0.001001001001001001
asS'enjoyed'
p1157
(lp1158
F0.0007135212272565109
aF0.000333667000333667
asS'shoes'
p1159
(lp1160
F0.0028540849090260435
aF0.000667334000667334
asS'fibre'
p1161
(lp1162
F0.00035676061362825543
aF0.000667334000667334
asS'slow'
p1163
(lp1164
F0.00035676061362825543
aF0.002002002002002002
asS'love color'
p1165
(lp1166
F0.0007135212272565109
aF0.000333667000333667
asS'thriller'
p1167
(lp1168
F0.0007135212272565109
aF0.000333667000333667
asS'treasure'
p1169
(lp1170
F0.0007135212272565109
aF0.000333667000333667
asS'behind'
p1171
(lp1172
F0.00035676061362825543
aF0.000667334000667334
asS'texture'
p1173
(lp1174
F0.0007135212272565109
aF0.000667334000667334
asS'should'
p1175
(lp1176
F0.0007135212272565109
aF0.000333667000333667
asS'version'
p1177
(lp1178
F0.0007135212272565109
aF0.000333667000333667
asS'black'
p1179
(lp1180
F0.0007135212272565109
aF0.000333667000333667
asS'matronly'
p1181
(lp1182
F0.00035676061362825543
aF0.000667334000667334
asS'pretty'
p1183
(lp1184
F0.0024973242953977882
aF0.001334668001334668
asS'photo'
p1185
(lp1186
F0.00035676061362825543
aF0.000333667000333667
asS'stain'
p1187
(lp1188
F0.00035676061362825543
aF0.000667334000667334
asS'expected quality'
p1189
(lp1190
F0.00035676061362825543
aF0.001001001001001001
asS'too high'
p1191
(lp1192
F0.00035676061362825543
aF0.001001001001001001
asS'inferior'
p1193
(lp1194
F0.00035676061362825543
aF0.000667334000667334
asS'photographs'
p1195
(lp1196
F0.00035676061362825543
aF0.000667334000667334
asS'very poor'
p1197
(lp1198
F0.00035676061362825543
aF0.001334668001334668
asS'handle'
p1199
(lp1200
F0.0007135212272565109
aF0.000333667000333667
asS'goes'
p1201
(lp1202
F0.0007135212272565109
aF0.000333667000333667
asS'packaging'
p1203
(lp1204
F0.0007135212272565109
aF0.002002002002002002
asS'wide'
p1205
(lp1206
F0.00035676061362825543
aF0.000667334000667334
asS'freezing'
p1207
(lp1208
F0.00035676061362825543
aF0.000667334000667334
asS'expectation'
p1209
(lp1210
F0.00035676061362825543
aF0.001001001001001001
asS'quality material'
p1211
(lp1212
F0.00035676061362825543
aF0.000667334000667334
asS'soon'
p1213
(lp1214
F0.0007135212272565109
aF0.000333667000333667
asS'pocket'
p1215
(lp1216
F0.0007135212272565109
aF0.000333667000333667
asS'amazon'
p1217
(lp1218
F0.0007135212272565109
aF0.000333667000333667
asS'ones'
p1219
(lp1220
F0.0010702818408847663
aF0.000333667000333667
asS'sliverygray'
p1221
(lp1222
F0.00035676061362825543
aF0.000667334000667334
asS'perfection'
p1223
(lp1224
F0.0007135212272565109
aF0.000333667000333667
asS'size too'
p1225
(lp1226
F0.00035676061362825543
aF0.000667334000667334
asS'buyer'
p1227
(lp1228
F0.00035676061362825543
aF0.000667334000667334
asS'nasty'
p1229
(lp1230
F0.00035676061362825543
aF0.000667334000667334
asS'luks'
p1231
(lp1232
F0.0007135212272565109
aF0.000333667000333667
asS'smash'
p1233
(lp1234
F0.00035676061362825543
aF0.000667334000667334
asS'runs'
p1235
(lp1236
F0.00035676061362825543
aF0.000667334000667334
asS'spots'
p1237
(lp1238
F0.00035676061362825543
aF0.000333667000333667
asS'stitching'
p1239
(lp1240
F0.00035676061362825543
aF0.000333667000333667
asS'twice'
p1241
(lp1242
F0.00035676061362825543
aF0.000667334000667334
asS'page turner'
p1243
(lp1244
F0.0010702818408847663
aF0.000333667000333667
asS'boarder'
p1245
(lp1246
F0.00035676061362825543
aF0.000333667000333667
asS'very quick'
p1247
(lp1248
F0.0010702818408847663
aF0.000333667000333667
asS'turner'
p1249
(lp1250
F0.00035676061362825543
aF0.000333667000333667
asS'bag'
p1251
(lp1252
F0.0014270424545130217
aF0.001001001001001001
asS'bad'
p1253
(lp1254
F0.00035676061362825543
aF0.002335669002335669
asS'stuff'
p1255
(lp1256
F0.00035676061362825543
aF0.000667334000667334
asS'though'
p1257
(lp1258
F0.0007135212272565109
aF0.001001001001001001
asS'hype'
p1259
(lp1260
F0.00035676061362825543
aF0.000667334000667334
asS'complimenting'
p1261
(lp1262
F0.0007135212272565109
aF0.000333667000333667
asS'finishing'
p1263
(lp1264
F0.00035676061362825543
aF0.000667334000667334
asS'steal'
p1265
(lp1266
F0.0007135212272565109
aF0.000333667000333667
asS'good book'
p1267
(lp1268
F0.0007135212272565109
aF0.000667334000667334
asS'thanks'
p1269
(lp1270
F0.00035676061362825543
aF0.000333667000333667
asS'available'
p1271
(lp1272
F0.0010702818408847663
aF0.000667334000667334
asS'set'
p1273
(lp1274
F0.0010702818408847663
aF0.000667334000667334
asS'art'
p1275
(lp1276
F0.0007135212272565109
aF0.000333667000333667
asS'disaster'
p1277
(lp1278
F0.00035676061362825543
aF0.000667334000667334
asS'fascinating'
p1279
(lp1280
F0.0007135212272565109
aF0.000333667000333667
asS'very cheap'
p1281
(lp1282
F0.00035676061362825543
aF0.001001001001001001
asS'smooth'
p1283
(lp1284
F0.00035676061362825543
aF0.000333667000333667
asS'edition'
p1285
(lp1286
F0.0007135212272565109
aF0.000333667000333667
asS'cant wear'
p1287
(lp1288
F0.00035676061362825543
aF0.001001001001001001
asS'dumb'
p1289
(lp1290
F0.00035676061362825543
aF0.000667334000667334
asS'racket'
p1291
(lp1292
F0.00035676061362825543
aF0.001001001001001001
asS'easy fit'
p1293
(lp1294
F0.0010702818408847663
aF0.000667334000667334
asS'ur'
p1295
(lp1296
F0.00035676061362825543
aF0.000333667000333667
asS'unusably'
p1297
(lp1298
F0.00035676061362825543
aF0.000667334000667334
asS'best'
p1299
(lp1300
F0.003210845522654299
aF0.000667334000667334
asS'small size'
p1301
(lp1302
F0.0007135212272565109
aF0.000667334000667334
asS'quality below'
p1303
(lp1304
F0.00035676061362825543
aF0.001001001001001001
asS'pattern'
p1305
(lp1306
F0.00035676061362825543
aF0.000333667000333667
asS'away'
p1307
(lp1308
F0.00035676061362825543
aF0.000667334000667334
asS'definite'
p1309
(lp1310
F0.0007135212272565109
aF0.000333667000333667
asS'artificial'
p1311
(lp1312
F0.00035676061362825543
aF0.000667334000667334
asS'superb'
p1313
(lp1314
F0.0017838030681412772
aF0.000333667000333667
asS'junkies'
p1315
(lp1316
F0.00035676061362825543
aF0.000667334000667334
asS'enough'
p1317
(lp1318
F0.0010702818408847663
aF0.000667334000667334
asS'future'
p1319
(lp1320
F0.0007135212272565109
aF0.000333667000333667
asS'faile'
p1321
(lp1322
F0.00035676061362825543
aF0.000667334000667334
asS'embroidery'
p1323
(lp1324
F0.0007135212272565109
aF0.000333667000333667
asS'horrible'
p1325
(lp1326
F0.00035676061362825543
aF0.001668335001668335
asS'reading'
p1327
(lp1328
F0.0007135212272565109
aF0.000333667000333667
asS'too expensive'
p1329
(lp1330
F0.0007135212272565109
aF0.000667334000667334
asS'bought'
p1331
(lp1332
F0.0007135212272565109
aF0.000333667000333667
asS'affordable'
p1333
(lp1334
F0.0010702818408847663
aF0.000333667000333667
asS'again golden'
p1335
(lp1336
F0.00035676061362825543
aF0.000333667000333667
asS'never'
p1337
(lp1338
F0.00035676061362825543
aF0.001334668001334668
asS'wears'
p1339
(lp1340
F0.0010702818408847663
aF0.000333667000333667
asS'missing'
p1341
(lp1342
F0.0007135212272565109
aF0.000667334000667334
asS'blaster'
p1343
(lp1344
F0.00035676061362825543
aF0.000667334000667334
asS'customer service'
p1345
(lp1346
F0.00035676061362825543
aF0.001334668001334668
asS'screen'
p1347
(lp1348
F0.00035676061362825543
aF0.000667334000667334
asS'were'
p1349
(lp1350
F0.00035676061362825543
aF0.001668335001668335
asS'job'
p1351
(lp1352
F0.0010702818408847663
aF0.000333667000333667
asS'nice looking'
p1353
(lp1354
F0.0007135212272565109
aF0.000333667000333667
asS'wear'
p1355
(lp1356
F0.0014270424545130217
aF0.000333667000333667
asS'interface'
p1357
(lp1358
F0.00035676061362825543
aF0.000667334000667334
asS'enthralling'
p1359
(lp1360
F0.0007135212272565109
aF0.000333667000333667
asS'printing'
p1361
(lp1362
F0.00035676061362825543
aF0.001001001001001001
asS'nice fabric'
p1363
(lp1364
F0.0014270424545130217
aF0.000333667000333667
asS'product great'
p1365
(lp1366
F0.0010702818408847663
aF0.000333667000333667
asS'both'
p1367
(lp1368
F0.0010702818408847663
aF0.000333667000333667
asS'piece'
p1369
(lp1370
F0.00035676061362825543
aF0.000667334000667334
asS'last'
p1371
(lp1372
F0.00035676061362825543
aF0.000667334000667334
asS'tablet'
p1373
(lp1374
F0.0021405636817695326
aF0.001334668001334668
asS'fault'
p1375
(lp1376
F0.00035676061362825543
aF0.000667334000667334
asS'heating'
p1377
(lp1378
F0.00035676061362825543
aF0.000667334000667334
asS'wastage time'
p1379
(lp1380
F0.00035676061362825543
aF0.001001001001001001
asS'disappointment'
p1381
(lp1382
F0.00035676061362825543
aF0.000667334000667334
asS'let'
p1383
(lp1384
F0.00035676061362825543
aF0.000667334000667334
asS'placebo'
p1385
(lp1386
F0.00035676061362825543
aF0.000667334000667334
asS'whole'
p1387
(lp1388
F0.0007135212272565109
aF0.000667334000667334
asS'comes'
p1389
(lp1390
F0.00035676061362825543
aF0.001001001001001001
asS'genuine product'
p1391
(lp1392
F0.0007135212272565109
aF0.000667334000667334
asS'cenizas'
p1393
(lp1394
F0.0007135212272565109
aF0.000333667000333667
asS'among'
p1395
(lp1396
F0.0007135212272565109
aF0.000333667000333667
asS'liked'
p1397
(lp1398
F0.0010702818408847663
aF0.000333667000333667
asS'not expected'
p1399
(lp1400
F0.0010702818408847663
aF0.001668335001668335
asS'color'
p1401
(lp1402
F0.0010702818408847663
aF0.000667334000667334
asS'continuation'
p1403
(lp1404
F0.0007135212272565109
aF0.000333667000333667
asS'low quality'
p1405
(lp1406
F0.00035676061362825543
aF0.000667334000667334
asS'ubuntu'
p1407
(lp1408
F0.00035676061362825543
aF0.000667334000667334
asS'period'
p1409
(lp1410
F0.0007135212272565109
aF0.000333667000333667
asS'height'
p1411
(lp1412
F0.00035676061362825543
aF0.001001001001001001
asS'improper'
p1413
(lp1414
F0.00035676061362825543
aF0.000667334000667334
asS'not happy'
p1415
(lp1416
F0.00035676061362825543
aF0.001001001001001001
asS'simply'
p1417
(lp1418
F0.0010702818408847663
aF0.000333667000333667
asS'likes'
p1419
(lp1420
F0.0007135212272565109
aF0.000333667000333667
asS'upto mark'
p1421
(lp1422
F0.00035676061362825543
aF0.001001001001001001
asS'table'
p1423
(lp1424
F0.0021405636817695326
aF0.000333667000333667
asS'bizarre'
p1425
(lp1426
F0.00035676061362825543
aF0.000667334000667334
asS'trust'
p1427
(lp1428
F0.00035676061362825543
aF0.000667334000667334
asS'expensive'
p1429
(lp1430
F0.0007135212272565109
aF0.000333667000333667
asS'late'
p1431
(lp1432
F0.00035676061362825543
aF0.000667334000667334
asS'strong'
p1433
(lp1434
F0.00035676061362825543
aF0.000667334000667334
asS'described'
p1435
(lp1436
F0.0010702818408847663
aF0.000333667000333667
asS'raise'
p1437
(lp1438
F0.00035676061362825543
aF0.000667334000667334
asS'tremendous'
p1439
(lp1440
F0.0007135212272565109
aF0.000333667000333667
asS'decent'
p1441
(lp1442
F0.0021405636817695326
aF0.000667334000667334
asS'create'
p1443
(lp1444
F0.0007135212272565109
aF0.000333667000333667
asS'high hopes'
p1445
(lp1446
F0.00035676061362825543
aF0.001001001001001001
asS'due'
p1447
(lp1448
F0.00035676061362825543
aF0.000667334000667334
asS'been'
p1449
(lp1450
F0.0007135212272565109
aF0.000333667000333667
asS'mark'
p1451
(lp1452
F0.00035676061362825543
aF0.000333667000333667
asS'quie'
p1453
(lp1454
F0.0007135212272565109
aF0.000333667000333667
asS'quality product'
p1455
(lp1456
F0.0010702818408847663
aF0.000667334000667334
asS'much'
p1457
(lp1458
F0.0017838030681412772
aF0.000333667000333667
asS'damn'
p1459
(lp1460
F0.0007135212272565109
aF0.000667334000667334
asS'wobbly'
p1461
(lp1462
F0.00035676061362825543
aF0.001001001001001001
asS'basic'
p1463
(lp1464
F0.0010702818408847663
aF0.000667334000667334
asS'expected'
p1465
(lp1466
F0.0010702818408847663
aF0.000333667000333667
asS'lovely'
p1467
(lp1468
F0.0017838030681412772
aF0.000333667000333667
asS'comfortable stylish'
p1469
(lp1470
F0.0010702818408847663
aF0.000333667000333667
asS'spoiling'
p1471
(lp1472
F0.00035676061362825543
aF0.000667334000667334
asS'wants'
p1473
(lp1474
F0.00035676061362825543
aF0.000333667000333667
asS'fuctional'
p1475
(lp1476
F0.0007135212272565109
aF0.000333667000333667
asS'too tight'
p1477
(lp1478
F0.00035676061362825543
aF0.001001001001001001
asS'received'
p1479
(lp1480
F0.00035676061362825543
aF0.001001001001001001
asS'turned'
p1481
(lp1482
F0.00035676061362825543
aF0.000333667000333667
asS'else'
p1483
(lp1484
F0.00035676061362825543
aF0.000667334000667334
asS'sleeves'
p1485
(lp1486
F0.00035676061362825543
aF0.001001001001001001
asS'child'
p1487
(lp1488
F0.0007135212272565109
aF0.000333667000333667
asS'receive'
p1489
(lp1490
F0.00035676061362825543
aF0.000667334000667334
asS'worked'
p1491
(lp1492
F0.0007135212272565109
aF0.000333667000333667
asS'sad'
p1493
(lp1494
F0.0007135212272565109
aF0.000333667000333667
asS'standard'
p1495
(lp1496
F0.00035676061362825543
aF0.000333667000333667
asS'cute drop'
p1497
(lp1498
F0.0010702818408847663
aF0.000333667000333667
asS'novel'
p1499
(lp1500
F0.0010702818408847663
aF0.000667334000667334
asS'product good'
p1501
(lp1502
F0.00035676061362825543
aF0.000333667000333667
asS'reliable'
p1503
(lp1504
F0.0007135212272565109
aF0.000333667000333667
asS'appearance'
p1505
(lp1506
F0.00035676061362825543
aF0.000667334000667334
asS'budget'
p1507
(lp1508
F0.0007135212272565109
aF0.000333667000333667
asS'value'
p1509
(lp1510
F0.00035676061362825543
aF0.000333667000333667
asS'healthy'
p1511
(lp1512
F0.0007135212272565109
aF0.000333667000333667
asS'while'
p1513
(lp1514
F0.00035676061362825543
aF0.000667334000667334
asS'neat'
p1515
(lp1516
F0.0007135212272565109
aF0.000333667000333667
asS'very soft'
p1517
(lp1518
F0.0010702818408847663
aF0.000333667000333667
asS'reliably'
p1519
(lp1520
F0.00035676061362825543
aF0.000667334000667334
asS'many'
p1521
(lp1522
F0.0007135212272565109
aF0.000333667000333667
asS'newspaper'
p1523
(lp1524
F0.00035676061362825543
aF0.000667334000667334
asS'advisable'
p1525
(lp1526
F0.00035676061362825543
aF0.000667334000667334
asS'coolest'
p1527
(lp1528
F0.0007135212272565109
aF0.000333667000333667
asS'terribly'
p1529
(lp1530
F0.00035676061362825543
aF0.000667334000667334
asS'product nice'
p1531
(lp1532
F0.0010702818408847663
aF0.000333667000333667
asS'stop'
p1533
(lp1534
F0.0007135212272565109
aF0.000667334000667334
asS'larger'
p1535
(lp1536
F0.00035676061362825543
aF0.000667334000667334
asS'costly'
p1537
(lp1538
F0.00035676061362825543
aF0.000667334000667334
asS'hoping'
p1539
(lp1540
F0.00035676061362825543
aF0.000667334000667334
asS'almost'
p1541
(lp1542
F0.00035676061362825543
aF0.000667334000667334
asS'quality good'
p1543
(lp1544
F0.00035676061362825543
aF0.000667334000667334
asS'ir'
p1545
(lp1546
F0.00035676061362825543
aF0.000667334000667334
asS'canon'
p1547
(lp1548
F0.00035676061362825543
aF0.000667334000667334
asS'disappointing'
p1549
(lp1550
F0.00035676061362825543
aF0.001334668001334668
asS'cant'
p1551
(lp1552
F0.0010702818408847663
aF0.001001001001001001
asS'beautifully'
p1553
(lp1554
F0.0010702818408847663
aF0.000333667000333667
asS'everyday'
p1555
(lp1556
F0.0007135212272565109
aF0.000333667000333667
asS'saddening'
p1557
(lp1558
F0.00035676061362825543
aF0.000667334000667334
asS'funny'
p1559
(lp1560
F0.0010702818408847663
aF0.000333667000333667
asS'different'
p1561
(lp1562
F0.0007135212272565109
aF0.002335669002335669
asS'wore'
p1563
(lp1564
F0.0007135212272565109
aF0.000333667000333667
asS'shirt'
p1565
(lp1566
F0.00035676061362825543
aF0.002002002002002002
asS'anymore'
p1567
(lp1568
F0.00035676061362825543
aF0.000667334000667334
asS'shiny'
p1569
(lp1570
F0.0007135212272565109
aF0.000333667000333667
asS'wearing'
p1571
(lp1572
F0.0007135212272565109
aF0.000333667000333667
asS'suggest'
p1573
(lp1574
F0.00035676061362825543
aF0.000667334000667334
asS'make'
p1575
(lp1576
F0.0007135212272565109
aF0.000333667000333667
asS'not too'
p1577
(lp1578
F0.0007135212272565109
aF0.000333667000333667
asS'same'
p1579
(lp1580
F0.0007135212272565109
aF0.000333667000333667
asS'varies'
p1581
(lp1582
F0.00035676061362825543
aF0.000667334000667334
asS'paulo'
p1583
(lp1584
F0.0007135212272565109
aF0.000333667000333667
asS'size issues'
p1585
(lp1586
F0.00035676061362825543
aF0.000333667000333667
asS'waste'
p1587
(lp1588
F0.00035676061362825543
aF0.000333667000333667
asS'party'
p1589
(lp1590
F0.0007135212272565109
aF0.000333667000333667
asS'dont buy'
p1591
(lp1592
F0.00035676061362825543
aF0.003670337003670337
asS'quality books'
p1593
(lp1594
F0.0007135212272565109
aF0.000667334000667334
asS'difficult'
p1595
(lp1596
F0.00035676061362825543
aF0.001334668001334668
asS'breakdown'
p1597
(lp1598
F0.00035676061362825543
aF0.000667334000667334
asS'meets'
p1599
(lp1600
F0.0007135212272565109
aF0.000333667000333667
asS'finish'
p1601
(lp1602
F0.00035676061362825543
aF0.000333667000333667
asS'slightly'
p1603
(lp1604
F0.00035676061362825543
aF0.000667334000667334
asS'keys'
p1605
(lp1606
F0.00035676061362825543
aF0.000667334000667334
asS'fruit'
p1607
(lp1608
F0.00035676061362825543
aF0.000667334000667334
asS'arrived'
p1609
(lp1610
F0.0007135212272565109
aF0.000333667000333667
asS'purpose'
p1611
(lp1612
F0.0007135212272565109
aF0.000333667000333667
asS'total waste'
p1613
(lp1614
F0.00035676061362825543
aF0.001001001001001001
asS'robust'
p1615
(lp1616
F0.0007135212272565109
aF0.000333667000333667
asS'sandals'
p1617
(lp1618
F0.0017838030681412772
aF0.000667334000667334
asS'totally'
p1619
(lp1620
F0.0017838030681412772
aF0.000667334000667334
asS'collar'
p1621
(lp1622
F0.00035676061362825543
aF0.000667334000667334
asS'tighter'
p1623
(lp1624
F0.00035676061362825543
aF0.000667334000667334
asS'gorgeatte'
p1625
(lp1626
F0.00035676061362825543
aF0.000667334000667334
asS'lower'
p1627
(lp1628
F0.00035676061362825543
aF0.000667334000667334
asS'suitable'
p1629
(lp1630
F0.0007135212272565109
aF0.000667334000667334
asS'discounted'
p1631
(lp1632
F0.00035676061362825543
aF0.000667334000667334
asS'center'
p1633
(lp1634
F0.00035676061362825543
aF0.001001001001001001
asS'fully'
p1635
(lp1636
F0.0014270424545130217
aF0.000333667000333667
asS'colour'
p1637
(lp1638
F0.0014270424545130217
aF0.001334668001334668
asS'no'
p1639
(lp1640
F0.0010702818408847663
aF0.00333667000333667
asS'spent'
p1641
(lp1642
F0.0007135212272565109
aF0.000333667000333667
asS'soft fabric'
p1643
(lp1644
F0.0010702818408847663
aF0.000333667000333667
asS'options'
p1645
(lp1646
F0.0007135212272565109
aF0.000333667000333667
asS'person'
p1647
(lp1648
F0.0007135212272565109
aF0.000667334000667334
asS'sheer'
p1649
(lp1650
F0.00035676061362825543
aF0.000667334000667334
asS'materials'
p1651
(lp1652
F0.00035676061362825543
aF0.000667334000667334
asS'theyre very'
p1653
(lp1654
F0.0010702818408847663
aF0.000333667000333667
asS'bottle'
p1655
(lp1656
F0.00035676061362825543
aF0.000667334000667334
asS'thoroughly'
p1657
(lp1658
F0.0007135212272565109
aF0.000333667000333667
asS'very'
p1659
(lp1660
F0.00035676061362825543
aF0.004004004004004004
asS'model'
p1661
(lp1662
F0.0007135212272565109
aF0.001001001001001001
asS'thats'
p1663
(lp1664
F0.0007135212272565109
aF0.000333667000333667
asS'interesting read'
p1665
(lp1666
F0.0010702818408847663
aF0.000333667000333667
asS'left'
p1667
(lp1668
F0.00035676061362825543
aF0.000667334000667334
asS'load'
p1669
(lp1670
F0.00035676061362825543
aF0.000667334000667334
asS'abilities'
p1671
(lp1672
F0.00035676061362825543
aF0.000667334000667334
asS'not satisfied'
p1673
(lp1674
F0.00035676061362825543
aF0.001668335001668335
asS'less'
p1675
(lp1676
F0.0007135212272565109
aF0.000333667000333667
asS'money'
p1677
(lp1678
F0.0007135212272565109
aF0.000667334000667334
asS'laptop'
p1679
(lp1680
F0.00035676061362825543
aF0.000667334000667334
asS'adjustments'
p1681
(lp1682
F0.0007135212272565109
aF0.000333667000333667
asS'very good'
p1683
(lp1684
F0.0017838030681412772
aF0.000333667000333667
asS'not'
p1685
(lp1686
F0.0007135212272565109
aF0.006006006006006006
asS'shape'
p1687
(lp1688
F0.00035676061362825543
aF0.000667334000667334
asS'plagued'
p1689
(lp1690
F0.00035676061362825543
aF0.000667334000667334
asS'good looks'
p1691
(lp1692
F0.0007135212272565109
aF0.001001001001001001
asS'advertised'
p1693
(lp1694
F0.0007135212272565109
aF0.000667334000667334
asS'touch'
p1695
(lp1696
F0.00035676061362825543
aF0.000667334000667334
asS'speed'
p1697
(lp1698
F0.00035676061362825543
aF0.000333667000333667
asS'yet'
p1699
(lp1700
F0.0010702818408847663
aF0.000333667000333667
asS'value money'
p1701
(lp1702
F0.0014270424545130217
aF0.000333667000333667
asS'buyers'
p1703
(lp1704
F0.0007135212272565109
aF0.000333667000333667
asS'cut'
p1705
(lp1706
F0.0007135212272565109
aF0.001001001001001001
asS'lehenga'
p1707
(lp1708
F0.00035676061362825543
aF0.000333667000333667
asS'sheldon'
p1709
(lp1710
F0.00035676061362825543
aF0.000333667000333667
asS'tight'
p1711
(lp1712
F0.0007135212272565109
aF0.000333667000333667
asS'hated'
p1713
(lp1714
F0.00035676061362825543
aF0.000667334000667334
asS'seems'
p1715
(lp1716
F0.00035676061362825543
aF0.001001001001001001
asS'recommended'
p1717
(lp1718
F0.0007135212272565109
aF0.001001001001001001
asS'battery'
p1719
(lp1720
F0.00035676061362825543
aF0.001001001001001001
asS'add'
p1721
(lp1722
F0.0007135212272565109
aF0.000333667000333667
asS'setting'
p1723
(lp1724
F0.00035676061362825543
aF0.000667334000667334
asS'attractive'
p1725
(lp1726
F0.0007135212272565109
aF0.000667334000667334
asS'easy'
p1727
(lp1728
F0.0010702818408847663
aF0.000667334000667334
asS'sweet'
p1729
(lp1730
F0.0007135212272565109
aF0.000333667000333667
asS'wildcraft'
p1731
(lp1732
F0.00035676061362825543
aF0.000667334000667334
asS'playing'
p1733
(lp1734
F0.00035676061362825543
aF0.000667334000667334
asS'not mark'
p1735
(lp1736
F0.00035676061362825543
aF0.001001001001001001
asS'gave'
p1737
(lp1738
F0.0007135212272565109
aF0.000667334000667334
asS'real'
p1739
(lp1740
F0.0007135212272565109
aF0.000333667000333667
asS'wont'
p1741
(lp1742
F0.0010702818408847663
aF0.000333667000333667
asS'actual size'
p1743
(lp1744
F0.00035676061362825543
aF0.001001001001001001
asS'around'
p1745
(lp1746
F0.00035676061362825543
aF0.001001001001001001
asS'layering'
p1747
(lp1748
F0.0007135212272565109
aF0.000333667000333667
asS'read'
p1749
(lp1750
F0.0021405636817695326
aF0.000333667000333667
asS'big'
p1751
(lp1752
F0.00035676061362825543
aF0.000667334000667334
asS'couple'
p1753
(lp1754
F0.00035676061362825543
aF0.000333667000333667
asS'unlimited'
p1755
(lp1756
F0.00035676061362825543
aF0.000667334000667334
asS'comfortable style'
p1757
(lp1758
F0.0010702818408847663
aF0.000333667000333667
asS'unsafe'
p1759
(lp1760
F0.00035676061362825543
aF0.000667334000667334
asS'dark'
p1761
(lp1762
F0.00035676061362825543
aF0.001001001001001001
asS'game'
p1763
(lp1764
F0.00035676061362825543
aF0.000667334000667334
asS'five'
p1765
(lp1766
F0.0007135212272565109
aF0.000333667000333667
asS'daughter loved'
p1767
(lp1768
F0.0007135212272565109
aF0.000333667000333667
asS'casual wear'
p1769
(lp1770
F0.0010702818408847663
aF0.000333667000333667
asS'bit'
p1771
(lp1772
F0.0007135212272565109
aF0.000667334000667334
asS'glitches'
p1773
(lp1774
F0.00035676061362825543
aF0.001001001001001001
asS'disappointed'
p1775
(lp1776
F0.00035676061362825543
aF0.002669336002669336
asS'apart'
p1777
(lp1778
F0.00035676061362825543
aF0.000667334000667334
asS'shoulder'
p1779
(lp1780
F0.00035676061362825543
aF0.000333667000333667
asS'dignity'
p1781
(lp1782
F0.0007135212272565109
aF0.000333667000333667
asS'helpful'
p1783
(lp1784
F0.0007135212272565109
aF0.000333667000333667
asS'gift'
p1785
(lp1786
F0.0010702818408847663
aF0.000333667000333667
asS'qualitative'
p1787
(lp1788
F0.00035676061362825543
aF0.000333667000333667
asS'bad quality'
p1789
(lp1790
F0.0007135212272565109
aF0.001001001001001001
asS'very bad'
p1791
(lp1792
F0.0007135212272565109
aF0.002335669002335669
asS'glove'
p1793
(lp1794
F0.0007135212272565109
aF0.000333667000333667
asS'oddly'
p1795
(lp1796
F0.00035676061362825543
aF0.000667334000667334
asS'pleats'
p1797
(lp1798
F0.0007135212272565109
aF0.000333667000333667
asS'unsightly'
p1799
(lp1800
F0.0007135212272565109
aF0.000333667000333667
asS'overrated'
p1801
(lp1802
F0.00035676061362825543
aF0.001001001001001001
asS'clutch'
p1803
(lp1804
F0.0007135212272565109
aF0.000333667000333667
asS'light weight'
p1805
(lp1806
F0.0007135212272565109
aF0.000667334000667334
asS'stylish'
p1807
(lp1808
F0.0010702818408847663
aF0.000333667000333667
asS'stripes'
p1809
(lp1810
F0.00035676061362825543
aF0.001001001001001001
asS'works'
p1811
(lp1812
F0.0007135212272565109
aF0.000667334000667334
asS'soft'
p1813
(lp1814
F0.0010702818408847663
aF0.000333667000333667
asS'page'
p1815
(lp1816
F0.00035676061362825543
aF0.000333667000333667
asS'towards'
p1817
(lp1818
F0.00035676061362825543
aF0.000667334000667334
asS'replacement'
p1819
(lp1820
F0.00035676061362825543
aF0.000667334000667334
asS'satisfactory'
p1821
(lp1822
F0.0007135212272565109
aF0.000333667000333667
asS'right'
p1823
(lp1824
F0.0014270424545130217
aF0.000333667000333667
asS'old'
p1825
(lp1826
F0.00035676061362825543
aF0.000667334000667334
asS'shabby'
p1827
(lp1828
F0.0007135212272565109
aF0.000333667000333667
asS'deal'
p1829
(lp1830
F0.00035676061362825543
aF0.000333667000333667
asS'exposed'
p1831
(lp1832
F0.00035676061362825543
aF0.000667334000667334
asS'absolutely'
p1833
(lp1834
F0.0007135212272565109
aF0.000667334000667334
asS'lookwise'
p1835
(lp1836
F0.00035676061362825543
aF0.000667334000667334
asS'somehow'
p1837
(lp1838
F0.00035676061362825543
aF0.000667334000667334
asS'library'
p1839
(lp1840
F0.0007135212272565109
aF0.000333667000333667
asS'theyre'
p1841
(lp1842
F0.00035676061362825543
aF0.000333667000333667
asS'printer'
p1843
(lp1844
F0.00035676061362825543
aF0.001001001001001001
asS'serves'
p1845
(lp1846
F0.0007135212272565109
aF0.000333667000333667
asS'specified'
p1847
(lp1848
F0.0007135212272565109
aF0.000333667000333667
asS'proper'
p1849
(lp1850
F0.0007135212272565109
aF0.000667334000667334
asS'repelling'
p1851
(lp1852
F0.00035676061362825543
aF0.000667334000667334
asS'pleased'
p1853
(lp1854
F0.00035676061362825543
aF0.000667334000667334
asS'narrowed'
p1855
(lp1856
F0.00035676061362825543
aF0.000667334000667334
asS'delivered'
p1857
(lp1858
F0.0010702818408847663
aF0.001001001001001001
asS'bottom'
p1859
(lp1860
F0.00035676061362825543
aF0.000667334000667334
asS'avoid'
p1861
(lp1862
F0.00035676061362825543
aF0.000667334000667334
asS'perfetly'
p1863
(lp1864
F0.0007135212272565109
aF0.000333667000333667
asS'per'
p1865
(lp1866
F0.00035676061362825543
aF0.000667334000667334
asS'seller'
p1867
(lp1868
F0.0007135212272565109
aF0.000333667000333667
asS'wrong'
p1869
(lp1870
F0.00035676061362825543
aF0.000333667000333667
asS'everything'
p1871
(lp1872
F0.0014270424545130217
aF0.000667334000667334
asS'product must'
p1873
(lp1874
F0.0010702818408847663
aF0.000333667000333667
asS'run small'
p1875
(lp1876
F0.00035676061362825543
aF0.001001001001001001
asS'epic'
p1877
(lp1878
F0.0010702818408847663
aF0.000333667000333667
asS'adorable'
p1879
(lp1880
F0.0007135212272565109
aF0.000333667000333667
asS'blurry'
p1881
(lp1882
F0.00035676061362825543
aF0.000667334000667334
asS'tight waist'
p1883
(lp1884
F0.00035676061362825543
aF0.001001001001001001
asS'coller'
p1885
(lp1886
F0.00035676061362825543
aF0.000333667000333667
asS'neatly'
p1887
(lp1888
F0.00035676061362825543
aF0.000667334000667334
asS'run'
p1889
(lp1890
F0.00035676061362825543
aF0.000333667000333667
asS'power'
p1891
(lp1892
F0.0007135212272565109
aF0.000333667000333667
asS'night'
p1893
(lp1894
F0.0007135212272565109
aF0.000333667000333667
asS'iconic'
p1895
(lp1896
F0.0007135212272565109
aF0.000333667000333667
asS'bt'
p1897
(lp1898
F0.00035676061362825543
aF0.000667334000667334
asS'broken'
p1899
(lp1900
F0.00035676061362825543
aF0.001001001001001001
asS'although'
p1901
(lp1902
F0.00035676061362825543
aF0.000333667000333667
asS'keeper'
p1903
(lp1904
F0.0007135212272565109
aF0.000333667000333667
asS'price too'
p1905
(lp1906
F0.00035676061362825543
aF0.001001001001001001
asS'wonders'
p1907
(lp1908
F0.00035676061362825543
aF0.000667334000667334
asS'super'
p1909
(lp1910
F0.0010702818408847663
aF0.000333667000333667
asS'throw'
p1911
(lp1912
F0.00035676061362825543
aF0.000667334000667334
asS'product received'
p1913
(lp1914
F0.00035676061362825543
aF0.001334668001334668
asS'hogwash'
p1915
(lp1916
F0.00035676061362825543
aF0.000667334000667334
asS'plastic'
p1917
(lp1918
F0.00035676061362825543
aF0.000667334000667334
asS'goods'
p1919
(lp1920
F0.00035676061362825543
aF0.000667334000667334
asS'actual'
p1921
(lp1922
F0.00035676061362825543
aF0.000333667000333667
asS'working'
p1923
(lp1924
F0.00035676061362825543
aF0.000667334000667334
asS'getting'
p1925
(lp1926
F0.00035676061362825543
aF0.000667334000667334
asS'fake product'
p1927
(lp1928
F0.00035676061362825543
aF0.001001001001001001
asS'chance'
p1929
(lp1930
F0.0007135212272565109
aF0.000333667000333667
asS'shipping'
p1931
(lp1932
F0.00035676061362825543
aF0.000667334000667334
asS'important'
p1933
(lp1934
F0.00035676061362825543
aF0.000333667000333667
asS'nothing'
p1935
(lp1936
F0.00035676061362825543
aF0.001334668001334668
asS'stand'
p1937
(lp1938
F0.0007135212272565109
aF0.000333667000333667
asS'pockets'
p1939
(lp1940
F0.0007135212272565109
aF0.000333667000333667
asS'flipkart'
p1941
(lp1942
F0.0007135212272565109
aF0.002002002002002002
asS'backup'
p1943
(lp1944
F0.00035676061362825543
aF0.000667334000667334
asS'bleeds'
p1945
(lp1946
F0.00035676061362825543
aF0.000333667000333667
asS'printed'
p1947
(lp1948
F0.00035676061362825543
aF0.000667334000667334
asS'heavy'
p1949
(lp1950
F0.00035676061362825543
aF0.000667334000667334
asS'raised'
p1951
(lp1952
F0.00035676061362825543
aF0.000667334000667334
asS'own'
p1953
(lp1954
F0.0007135212272565109
aF0.000333667000333667
asS'garbage'
p1955
(lp1956
F0.00035676061362825543
aF0.001668335001668335
asS'stitched'
p1957
(lp1958
F0.0007135212272565109
aF0.000667334000667334
asS'slippery'
p1959
(lp1960
F0.00035676061362825543
aF0.000667334000667334
asS'image'
p1961
(lp1962
F0.00035676061362825543
aF0.000667334000667334
asS'within'
p1963
(lp1964
F0.0007135212272565109
aF0.000333667000333667
asS'shrugs'
p1965
(lp1966
F0.00035676061362825543
aF0.000667334000667334
asS'nonsense'
p1967
(lp1968
F0.00035676061362825543
aF0.001001001001001001
asS'down'
p1969
(lp1970
F0.0010702818408847663
aF0.002002002002002002
asS'complaints'
p1971
(lp1972
F0.0007135212272565109
aF0.000333667000333667
asS'too large'
p1973
(lp1974
F0.00035676061362825543
aF0.001668335001668335
asS'doesnt'
p1975
(lp1976
F0.0007135212272565109
aF0.000667334000667334
asS'parties'
p1977
(lp1978
F0.00035676061362825543
aF0.000333667000333667
asS'couldnt'
p1979
(lp1980
F0.00035676061362825543
aF0.000667334000667334
asS'pointless'
p1981
(lp1982
F0.00035676061362825543
aF0.000667334000667334
asS'smells'
p1983
(lp1984
F0.00035676061362825543
aF0.000333667000333667
asS'racquet'
p1985
(lp1986
F0.0007135212272565109
aF0.000333667000333667
asS'revealing'
p1987
(lp1988
F0.0007135212272565109
aF0.000333667000333667
asS'samsungs'
p1989
(lp1990
F0.0007135212272565109
aF0.000333667000333667
asS'fabric'
p1991
(lp1992
F0.00035676061362825543
aF0.001334668001334668
asS'amazingly'
p1993
(lp1994
F0.0007135212272565109
aF0.000333667000333667
asS'constantly'
p1995
(lp1996
F0.00035676061362825543
aF0.000667334000667334
asS'apps'
p1997
(lp1998
F0.00035676061362825543
aF0.000667334000667334
asS'hey'
p1999
(lp2000
F0.00035676061362825543
aF0.000333667000333667
asS'fast'
p2001
(lp2002
F0.0010702818408847663
aF0.000333667000333667
asS'why'
p2003
(lp2004
F0.00035676061362825543
aF0.000333667000333667
asS'lost'
p2005
(lp2006
F0.00035676061362825543
aF0.000667334000667334
asS'size not'
p2007
(lp2008
F0.0007135212272565109
aF0.001668335001668335
asS'low'
p2009
(lp2010
F0.0014270424545130217
aF0.001001001001001001
asS'lot'
p2011
(lp2012
F0.0007135212272565109
aF0.000667334000667334
asS'recommendable'
p2013
(lp2014
F0.0007135212272565109
aF0.000333667000333667
asS'deteriorating'
p2015
(lp2016
F0.00035676061362825543
aF0.000667334000667334
asS'wat'
p2017
(lp2018
F0.0010702818408847663
aF0.000333667000333667
asS'happy'
p2019
(lp2020
F0.00035676061362825543
aF0.000333667000333667
asS'buy'
p2021
(lp2022
F0.0024973242953977882
aF0.002002002002002002
asS'complete'
p2023
(lp2024
F0.00035676061362825543
aF0.001001001001001001
asS'form'
p2025
(lp2026
F0.00035676061362825543
aF0.000333667000333667
asS'relaxed'
p2027
(lp2028
F0.0007135212272565109
aF0.000333667000333667
asS'buggy'
p2029
(lp2030
F0.00035676061362825543
aF0.000667334000667334
asS'hv'
p2031
(lp2032
F0.00035676061362825543
aF0.000333667000333667
asS'not good'
p2033
(lp2034
F0.00035676061362825543
aF0.004671338004671338
asS'glamour'
p2035
(lp2036
F0.0007135212272565109
aF0.000333667000333667
asS'cloth'
p2037
(lp2038
F0.0007135212272565109
aF0.002002002002002002
asS'hopes'
p2039
(lp2040
F0.00035676061362825543
aF0.000333667000333667
asS'line'
p2041
(lp2042
F0.0010702818408847663
aF0.000667334000667334
asS'bugs'
p2043
(lp2044
F0.00035676061362825543
aF0.000667334000667334
asS'true'
p2045
(lp2046
F0.00035676061362825543
aF0.000333667000333667
asS'dull'
p2047
(lp2048
F0.00035676061362825543
aF0.001668335001668335
asS'buying'
p2049
(lp2050
F0.0007135212272565109
aF0.000667334000667334
asS'thrilling'
p2051
(lp2052
F0.0010702818408847663
aF0.000333667000333667
asS'made'
p2053
(lp2054
F0.00035676061362825543
aF0.001334668001334668
asS'wise'
p2055
(lp2056
F0.00035676061362825543
aF0.000667334000667334
asS'tab'
p2057
(lp2058
F0.00035676061362825543
aF0.000667334000667334
asS'product completely'
p2059
(lp2060
F0.00035676061362825543
aF0.001001001001001001
asS'worth buying'
p2061
(lp2062
F0.0014270424545130217
aF0.000333667000333667
asS'sturdy'
p2063
(lp2064
F0.0010702818408847663
aF0.000333667000333667
asS'attached'
p2065
(lp2066
F0.0007135212272565109
aF0.000333667000333667
asS'devices'
p2067
(lp2068
F0.00035676061362825543
aF0.000667334000667334
asS'smashes'
p2069
(lp2070
F0.00035676061362825543
aF0.000667334000667334
asS'great table'
p2071
(lp2072
F0.00035676061362825543
aF0.001001001001001001
asS'below'
p2073
(lp2074
F0.00035676061362825543
aF0.000333667000333667
asS'stories'
p2075
(lp2076
F0.0007135212272565109
aF0.000333667000333667
asS'problem'
p2077
(lp2078
F0.0007135212272565109
aF0.001668335001668335
asS'more'
p2079
(lp2080
F0.00035676061362825543
aF0.001001001001001001
asS'rickety'
p2081
(lp2082
F0.00035676061362825543
aF0.000667334000667334
asS'display'
p2083
(lp2084
F0.00035676061362825543
aF0.001001001001001001
asS'ordered'
p2085
(lp2086
F0.0014270424545130217
aF0.001001001001001001
asS'worthwhile'
p2087
(lp2088
F0.00035676061362825543
aF0.000667334000667334
asS'good product'
p2089
(lp2090
F0.0010702818408847663
aF0.001001001001001001
asS'classic'
p2091
(lp2092
F0.0007135212272565109
aF0.000333667000333667
asS'upset'
p2093
(lp2094
F0.00035676061362825543
aF0.000667334000667334
asS'pic'
p2095
(lp2096
F0.0010702818408847663
aF0.000667334000667334
asS'store'
p2097
(lp2098
F0.00035676061362825543
aF0.000667334000667334
asS'life'
p2099
(lp2100
F0.00035676061362825543
aF0.001001001001001001
asS'not like'
p2101
(lp2102
F0.00035676061362825543
aF0.000667334000667334
asS'trendy'
p2103
(lp2104
F0.0007135212272565109
aF0.000333667000333667
asS'sometime'
p2105
(lp2106
F0.00035676061362825543
aF0.000667334000667334
asS'ink'
p2107
(lp2108
F0.00035676061362825543
aF0.000667334000667334
asS'crystals'
p2109
(lp2110
F0.0007135212272565109
aF0.000333667000333667
asS'mediocre'
p2111
(lp2112
F0.00035676061362825543
aF0.000667334000667334
asS'too big'
p2113
(lp2114
F0.00035676061362825543
aF0.001001001001001001
asS'shit'
p2115
(lp2116
F0.00035676061362825543
aF0.000667334000667334
asS'cotton'
p2117
(lp2118
F0.00035676061362825543
aF0.000667334000667334
asS'incorrect'
p2119
(lp2120
F0.00035676061362825543
aF0.000667334000667334
asS'again'
p2121
(lp2122
F0.00035676061362825543
aF0.000333667000333667
asS'compared'
p2123
(lp2124
F0.00035676061362825543
aF0.001001001001001001
asS'incredible'
p2125
(lp2126
F0.0007135212272565109
aF0.000333667000333667
asS'dressed'
p2127
(lp2128
F0.0007135212272565109
aF0.000333667000333667
asS'shoulders'
p2129
(lp2130
F0.0007135212272565109
aF0.001001001001001001
asS'occasional'
p2131
(lp2132
F0.00035676061362825543
aF0.000667334000667334
asS'spellbinding'
p2133
(lp2134
F0.0007135212272565109
aF0.000333667000333667
asS'book'
p2135
(lp2136
F0.004281127363539065
aF0.002335669002335669
asS'product very'
p2137
(lp2138
F0.0007135212272565109
aF0.000667334000667334
asS'nt'
p2139
(lp2140
F0.00035676061362825543
aF0.000667334000667334
asS'not bad'
p2141
(lp2142
F0.0010702818408847663
aF0.000667334000667334
asS'nice'
p2143
(lp2144
F0.003210845522654299
aF0.000667334000667334
asS'poor'
p2145
(lp2146
F0.00035676061362825543
aF0.000333667000333667
asS'picture'
p2147
(lp2148
F0.0007135212272565109
aF0.001001001001001001
asS'junk'
p2149
(lp2150
F0.00035676061362825543
aF0.000333667000333667
asS'star'
p2151
(lp2152
F0.0007135212272565109
aF0.000667334000667334
asS'very disappointed'
p2153
(lp2154
F0.00035676061362825543
aF0.001001001001001001
asS'provided'
p2155
(lp2156
F0.00035676061362825543
aF0.000667334000667334
asS'favourite'
p2157
(lp2158
F0.0007135212272565109
aF0.000333667000333667
asS'felt'
p2159
(lp2160
F0.0007135212272565109
aF0.000667334000667334
asS'problems'
p2161
(lp2162
F0.00035676061362825543
aF0.000667334000667334
asS'dented'
p2163
(lp2164
F0.00035676061362825543
aF0.000667334000667334
asS'push'
p2165
(lp2166
F0.00035676061362825543
aF0.000667334000667334
asS'drag'
p2167
(lp2168
F0.00035676061362825543
aF0.000667334000667334
asS'fell'
p2169
(lp2170
F0.0007135212272565109
aF0.000333667000333667
asS'smelling'
p2171
(lp2172
F0.00035676061362825543
aF0.000667334000667334
asS'priced'
p2173
(lp2174
F0.0007135212272565109
aF0.000333667000333667
asS'sides'
p2175
(lp2176
F0.00035676061362825543
aF0.000667334000667334
asS'opened'
p2177
(lp2178
F0.0007135212272565109
aF0.000333667000333667
asS'remote'
p2179
(lp2180
F0.00035676061362825543
aF0.000667334000667334
asS'very smooth'
p2181
(lp2182
F0.0007135212272565109
aF0.000333667000333667
asS'samsung'
p2183
(lp2184
F0.0010702818408847663
aF0.001001001001001001
asS'age'
p2185
(lp2186
F0.00035676061362825543
aF0.000667334000667334
asS'daily'
p2187
(lp2188
F0.00035676061362825543
aF0.000667334000667334
asS'not working'
p2189
(lp2190
F0.00035676061362825543
aF0.001668335001668335
asS'jacket'
p2191
(lp2192
F0.0010702818408847663
aF0.000333667000333667
asS'good color'
p2193
(lp2194
F0.0007135212272565109
aF0.000333667000333667
asS'safe'
p2195
(lp2196
F0.00035676061362825543
aF0.001334668001334668
asS'worn'
p2197
(lp2198
F0.0007135212272565109
aF0.000333667000333667
asS'petites'
p2199
(lp2200
F0.00035676061362825543
aF0.000667334000667334
asS'alright'
p2201
(lp2202
F0.0007135212272565109
aF0.000333667000333667
asS'original'
p2203
(lp2204
F0.0007135212272565109
aF0.001001001001001001
asS'fits perfect'
p2205
(lp2206
F0.0017838030681412772
aF0.000333667000333667
as.